---
triple:          'arm64-apple-darwin'
binary-path:     '/Users/artemnosenko/Documents/Projects/C++Projects/Mag/main'
relocations:
  - { offsetInCU: 0x44, offset: 0x44, size: 0x8, addend: 0x0, symName: __ZN5EigenL4lastE, symObjAddr: 0x3C26ED, symBinAddr: 0x10001C000, symSize: 0x0 }
  - { offsetInCU: 0x676D, offset: 0x676D, size: 0x8, addend: 0x0, symName: __ZN5Eigen8internal31conditional_aligned_delete_autoIdLb1EEEvPT_m, symObjAddr: 0x3B04, symBinAddr: 0x100006F74, symSize: 0x28 }
  - { offsetInCU: 0x67B9, offset: 0x67B9, size: 0x8, addend: 0x0, symName: __ZN5Eigen8internal24conditional_aligned_freeILb1EEEvPv, symObjAddr: 0x3B2C, symBinAddr: 0x100006F9C, symSize: 0x24 }
  - { offsetInCU: 0x67ED, offset: 0x67ED, size: 0x8, addend: 0x0, symName: __ZN5Eigen8internal12aligned_freeEPv, symObjAddr: 0x3B50, symBinAddr: 0x100006FC0, symSize: 0x24 }
  - { offsetInCU: 0x681C, offset: 0x681C, size: 0x8, addend: 0x0, symName: __ZN5Eigen8internal17get_runtime_valueIlEElRKT_, symObjAddr: 0x3CC8, symBinAddr: 0x100007138, symSize: 0x18 }
  - { offsetInCU: 0x68AE, offset: 0x68AE, size: 0x8, addend: 0x0, symName: __ZN5Eigen8internal19throw_std_bad_allocEv, symObjAddr: 0x472C, symBinAddr: 0x100007B9C, symSize: 0x34 }
  - { offsetInCU: 0x68EA, offset: 0x68EA, size: 0x8, addend: 0x0, symName: __ZN5Eigen8internal28conditional_aligned_new_autoIdLb1EEEPT_m, symObjAddr: 0x482C, symBinAddr: 0x100007C9C, symSize: 0x84 }
  - { offsetInCU: 0x6958, offset: 0x6958, size: 0x8, addend: 0x0, symName: __ZN5Eigen8internal26conditional_aligned_mallocILb1EEEPvm, symObjAddr: 0x48B0, symBinAddr: 0x100007D20, symSize: 0x24 }
  - { offsetInCU: 0x698E, offset: 0x698E, size: 0x8, addend: 0x0, symName: __ZN5Eigen8internal14aligned_mallocEm, symObjAddr: 0x48D4, symBinAddr: 0x100007D44, symSize: 0xDC }
  - { offsetInCU: 0x69CF, offset: 0x69CF, size: 0x8, addend: 0x0, symName: __ZN5Eigen8internal28check_that_malloc_is_allowedEv, symObjAddr: 0x49B0, symBinAddr: 0x100007E20, symSize: 0x4 }
  - { offsetInCU: 0x69E8, offset: 0x69E8, size: 0x8, addend: 0x0, symName: __ZN5Eigen8internal24call_assignment_no_aliasINS_6MatrixIdLin1ELin1ELi0ELin1ELin1EEENS_5BlockIS3_Lin1ELin1ELb1EEENS0_9assign_opIddEEEEvRT_RKT0_RKT1_, symObjAddr: 0x49B4, symBinAddr: 0x100007E24, symSize: 0x3C }
  - { offsetInCU: 0x6AC0, offset: 0x6AC0, size: 0x8, addend: 0x0, symName: __ZN5Eigen8internal18check_for_aliasingINS_6MatrixIdLin1ELin1ELi0ELin1ELin1EEENS_5BlockIS3_Lin1ELin1ELb1EEEEEvRKT_RKT0_, symObjAddr: 0x4A5C, symBinAddr: 0x100007ECC, symSize: 0x60 }
  - { offsetInCU: 0x6B0B, offset: 0x6B0B, size: 0x8, addend: 0x0, symName: __ZN5Eigen8internal26call_dense_assignment_loopINS_6MatrixIdLin1ELin1ELi0ELin1ELin1EEENS_5BlockIS3_Lin1ELin1ELb1EEENS0_9assign_opIddEEEEvRT_RKT0_RKT1_, symObjAddr: 0x4ABC, symBinAddr: 0x100007F2C, symSize: 0xF0 }
  - { offsetInCU: 0x6BFD, offset: 0x6BFD, size: 0x8, addend: 0x0, symName: __ZN5Eigen8internal17resize_if_allowedINS_6MatrixIdLin1ELin1ELi0ELin1ELin1EEENS_5BlockIS3_Lin1ELin1ELb1EEEddEEvRT_RKT0_RKNS0_9assign_opIT1_T2_EE, symObjAddr: 0x4BF4, symBinAddr: 0x100008064, symSize: 0xF8 }
  - { offsetInCU: 0x6E68, offset: 0x6E68, size: 0x8, addend: 0x0, symName: __ZN5Eigen8internal6pstoreId19__simd128_float64_tEEvPT_RKT0_, symObjAddr: 0x55B8, symBinAddr: 0x100008A28, symSize: 0x2C }
  - { offsetInCU: 0x6ED0, offset: 0x6ED0, size: 0x8, addend: 0x0, symName: __ZN5Eigen8internal6ploaduI19__simd128_float64_tEET_PKNS0_15unpacket_traitsIS3_E4typeE, symObjAddr: 0x55EC, symBinAddr: 0x100008A5C, symSize: 0x28 }
  - { offsetInCU: 0x6F8B, offset: 0x6F8B, size: 0x8, addend: 0x0, symName: __ZN5Eigen8internal36conditional_aligned_realloc_new_autoIdLb1EEEPT_S3_mm, symObjAddr: 0x5BEC, symBinAddr: 0x10000905C, symSize: 0x98 }
  - { offsetInCU: 0x7035, offset: 0x7035, size: 0x8, addend: 0x0, symName: __ZN5Eigen8internal27conditional_aligned_reallocILb1EEEPvS2_mm, symObjAddr: 0x5C84, symBinAddr: 0x1000090F4, symSize: 0x34 }
  - { offsetInCU: 0x708B, offset: 0x708B, size: 0x8, addend: 0x0, symName: __ZN5Eigen8internal15aligned_reallocEPvmm, symObjAddr: 0x5CB8, symBinAddr: 0x100009128, symSize: 0x70 }
  - { offsetInCU: 0x70E1, offset: 0x70E1, size: 0x8, addend: 0x0, symName: __ZN5Eigen8internal22ignore_unused_variableImEEvRKT_, symObjAddr: 0x5D28, symBinAddr: 0x100009198, symSize: 0x10 }
  - { offsetInCU: 0x713A, offset: 0x713A, size: 0x8, addend: 0x0, symName: __ZN5Eigen8internal15call_assignmentINS_5BlockINS_6MatrixIdLin1ELin1ELi0ELin1ELin1EEELin1ELin1ELb0EEES5_EEvRT_RKT0_, symObjAddr: 0x6484, symBinAddr: 0x1000098F4, symSize: 0x50 }
  - { offsetInCU: 0x7185, offset: 0x7185, size: 0x8, addend: 0x0, symName: __ZN5Eigen8internal15call_assignmentINS_5BlockINS_6MatrixIdLin1ELin1ELi0ELin1ELin1EEELin1ELin1ELb0EEES5_NS0_9assign_opIddEEEEvRT_RKT0_RKT1_NS0_9enable_ifIXntsr25evaluator_assume_aliasingISA_EE5valueEPvE4typeE, symObjAddr: 0x64E8, symBinAddr: 0x100009958, symSize: 0x38 }
  - { offsetInCU: 0x71F3, offset: 0x71F3, size: 0x8, addend: 0x0, symName: __ZN5Eigen8internal24call_assignment_no_aliasINS_5BlockINS_6MatrixIdLin1ELin1ELi0ELin1ELin1EEELin1ELin1ELb0EEES5_NS0_9assign_opIddEEEEvRT_RKT0_RKT1_, symObjAddr: 0x6520, symBinAddr: 0x100009990, symSize: 0x3C }
  - { offsetInCU: 0x72C1, offset: 0x72C1, size: 0x8, addend: 0x0, symName: __ZN5Eigen8internal18check_for_aliasingINS_5BlockINS_6MatrixIdLin1ELin1ELi0ELin1ELin1EEELin1ELin1ELb0EEES5_EEvRKT_RKT0_, symObjAddr: 0x659C, symBinAddr: 0x100009A0C, symSize: 0x60 }
  - { offsetInCU: 0x730C, offset: 0x730C, size: 0x8, addend: 0x0, symName: __ZN5Eigen8internal26call_dense_assignment_loopINS_5BlockINS_6MatrixIdLin1ELin1ELi0ELin1ELin1EEELin1ELin1ELb0EEES5_NS0_9assign_opIddEEEEvRT_RKT0_RKT1_, symObjAddr: 0x65FC, symBinAddr: 0x100009A6C, symSize: 0xF0 }
  - { offsetInCU: 0x73FE, offset: 0x73FE, size: 0x8, addend: 0x0, symName: __ZN5Eigen8internal17resize_if_allowedINS_5BlockINS_6MatrixIdLin1ELin1ELi0ELin1ELin1EEELin1ELin1ELb0EEES5_ddEEvRT_RKT0_RKNS0_9assign_opIT1_T2_EE, symObjAddr: 0x6784, symBinAddr: 0x100009BF4, symSize: 0xF8 }
  - { offsetInCU: 0x74BE, offset: 0x74BE, size: 0x8, addend: 0x0, symName: __ZN5Eigen8internal13first_alignedILi16EdlEET1_PKT0_S2_, symObjAddr: 0x7054, symBinAddr: 0x10000A4C4, symSize: 0xAC }
  - { offsetInCU: 0x759F, offset: 0x759F, size: 0x8, addend: 0x0, symName: __ZN5Eigen8internal24call_assignment_no_aliasINS_6MatrixIdLin1ELin1ELi0ELin1ELin1EEENS_13CwiseBinaryOpINS0_13scalar_sum_opIddEEKNS4_IS6_KNS4_IS6_KNS4_IS6_KNS4_IS6_KNS4_INS0_17scalar_product_opIddEEKNS_12ArrayWrapperIS3_EESB_EESD_EESD_EESD_EESD_EESD_EENS0_9assign_opIddEEEEvRT_RKT0_RKT1_, symObjAddr: 0x8A84, symBinAddr: 0x10000BEF4, symSize: 0x3C }
  - { offsetInCU: 0x766D, offset: 0x766D, size: 0x8, addend: 0x0, symName: __ZN5Eigen8internal18check_for_aliasingINS_6MatrixIdLin1ELin1ELi0ELin1ELin1EEENS_13CwiseBinaryOpINS0_13scalar_sum_opIddEEKNS4_IS6_KNS4_IS6_KNS4_IS6_KNS4_IS6_KNS4_INS0_17scalar_product_opIddEEKNS_12ArrayWrapperIS3_EESB_EESD_EESD_EESD_EESD_EESD_EEEEvRKT_RKT0_, symObjAddr: 0x8B00, symBinAddr: 0x10000BF70, symSize: 0x60 }
  - { offsetInCU: 0x76B8, offset: 0x76B8, size: 0x8, addend: 0x0, symName: __ZN5Eigen8internal26call_dense_assignment_loopINS_6MatrixIdLin1ELin1ELi0ELin1ELin1EEENS_13CwiseBinaryOpINS0_13scalar_sum_opIddEEKNS4_IS6_KNS4_IS6_KNS4_IS6_KNS4_IS6_KNS4_INS0_17scalar_product_opIddEEKNS_12ArrayWrapperIS3_EESB_EESD_EESD_EESD_EESD_EESD_EENS0_9assign_opIddEEEEvRT_RKT0_RKT1_, symObjAddr: 0x8B60, symBinAddr: 0x10000BFD0, symSize: 0xF0 }
  - { offsetInCU: 0x77AB, offset: 0x77AB, size: 0x8, addend: 0x0, symName: __ZN5Eigen8internal17resize_if_allowedINS_6MatrixIdLin1ELin1ELi0ELin1ELin1EEENS_13CwiseBinaryOpINS0_13scalar_sum_opIddEEKNS4_IS6_KNS4_IS6_KNS4_IS6_KNS4_IS6_KNS4_INS0_17scalar_product_opIddEEKNS_12ArrayWrapperIS3_EESB_EESD_EESD_EESD_EESD_EESD_EEddEEvRT_RKT0_RKNS0_9assign_opIT1_T2_EE, symObjAddr: 0x8C98, symBinAddr: 0x10000C108, symSize: 0xF8 }
  - { offsetInCU: 0x7831, offset: 0x7831, size: 0x8, addend: 0x0, symName: __ZN5Eigen8internal4paddI19__simd128_float64_tEET_RKS3_S5_, symObjAddr: 0xA93C, symBinAddr: 0x10000DDAC, symSize: 0x40 }
  - { offsetInCU: 0x7877, offset: 0x7877, size: 0x8, addend: 0x0, symName: __ZN5Eigen8internal4pmulI19__simd128_float64_tEET_RKS3_S5_, symObjAddr: 0xAB8C, symBinAddr: 0x10000DFFC, symSize: 0x40 }
  - { offsetInCU: 0x78EE, offset: 0x78EE, size: 0x8, addend: 0x0, symName: __ZN5Eigen8internal5ploadI19__simd128_float64_tEET_PKNS0_15unpacket_traitsIS3_E4typeE, symObjAddr: 0xAC08, symBinAddr: 0x10000E078, symSize: 0x28 }
  - { offsetInCU: 0x7942, offset: 0x7942, size: 0x8, addend: 0x0, symName: __ZN5Eigen8internal24call_assignment_no_aliasINS_6MatrixIdLin1ELin1ELi0ELin1ELin1EEENS_5BlockIS3_Lin1ELin1ELb0EEENS0_9assign_opIddEEEEvRT_RKT0_RKT1_, symObjAddr: 0xB334, symBinAddr: 0x10000E7A4, symSize: 0x3C }
  - { offsetInCU: 0x7A10, offset: 0x7A10, size: 0x8, addend: 0x0, symName: __ZN5Eigen8internal18check_for_aliasingINS_6MatrixIdLin1ELin1ELi0ELin1ELin1EEENS_5BlockIS3_Lin1ELin1ELb0EEEEEvRKT_RKT0_, symObjAddr: 0xB3B0, symBinAddr: 0x10000E820, symSize: 0x60 }
  - { offsetInCU: 0x7A5B, offset: 0x7A5B, size: 0x8, addend: 0x0, symName: __ZN5Eigen8internal26call_dense_assignment_loopINS_6MatrixIdLin1ELin1ELi0ELin1ELin1EEENS_5BlockIS3_Lin1ELin1ELb0EEENS0_9assign_opIddEEEEvRT_RKT0_RKT1_, symObjAddr: 0xB410, symBinAddr: 0x10000E880, symSize: 0xE8 }
  - { offsetInCU: 0x7B4D, offset: 0x7B4D, size: 0x8, addend: 0x0, symName: __ZN5Eigen8internal17resize_if_allowedINS_6MatrixIdLin1ELin1ELi0ELin1ELin1EEENS_5BlockIS3_Lin1ELin1ELb0EEEddEEvRT_RKT0_RKNS0_9assign_opIT1_T2_EE, symObjAddr: 0xB50C, symBinAddr: 0x10000E97C, symSize: 0xF8 }
  - { offsetInCU: 0x7BD3, offset: 0x7BD3, size: 0x8, addend: 0x0, symName: __ZN5Eigen8internal24call_assignment_no_aliasINS_6MatrixIdLin1ELin1ELi0ELin1ELin1EEENS_13CwiseBinaryOpINS0_13scalar_sum_opIddEEKNS4_IS6_KNS4_IS6_KNS4_IS6_KNS4_IS6_KNS4_IS6_KNS4_IS6_KNS4_IS6_KNS4_IS6_KNS4_IS6_KNS4_IS6_KNS4_INS0_17scalar_product_opIddEEKNS_12ArrayWrapperIS3_EESB_EESD_EESD_EESD_EESD_EESD_EESD_EESD_EESD_EESD_EESD_EESD_EENS0_9assign_opIddEEEEvRT_RKT0_RKT1_, symObjAddr: 0xCDD4, symBinAddr: 0x100010244, symSize: 0x3C }
  - { offsetInCU: 0x7CA1, offset: 0x7CA1, size: 0x8, addend: 0x0, symName: __ZN5Eigen8internal18check_for_aliasingINS_6MatrixIdLin1ELin1ELi0ELin1ELin1EEENS_13CwiseBinaryOpINS0_13scalar_sum_opIddEEKNS4_IS6_KNS4_IS6_KNS4_IS6_KNS4_IS6_KNS4_IS6_KNS4_IS6_KNS4_IS6_KNS4_IS6_KNS4_IS6_KNS4_IS6_KNS4_INS0_17scalar_product_opIddEEKNS_12ArrayWrapperIS3_EESB_EESD_EESD_EESD_EESD_EESD_EESD_EESD_EESD_EESD_EESD_EESD_EEEEvRKT_RKT0_, symObjAddr: 0xCE50, symBinAddr: 0x1000102C0, symSize: 0x60 }
  - { offsetInCU: 0x7CEC, offset: 0x7CEC, size: 0x8, addend: 0x0, symName: __ZN5Eigen8internal26call_dense_assignment_loopINS_6MatrixIdLin1ELin1ELi0ELin1ELin1EEENS_13CwiseBinaryOpINS0_13scalar_sum_opIddEEKNS4_IS6_KNS4_IS6_KNS4_IS6_KNS4_IS6_KNS4_IS6_KNS4_IS6_KNS4_IS6_KNS4_IS6_KNS4_IS6_KNS4_IS6_KNS4_INS0_17scalar_product_opIddEEKNS_12ArrayWrapperIS3_EESB_EESD_EESD_EESD_EESD_EESD_EESD_EESD_EESD_EESD_EESD_EESD_EENS0_9assign_opIddEEEEvRT_RKT0_RKT1_, symObjAddr: 0xCEB0, symBinAddr: 0x100010320, symSize: 0xF0 }
  - { offsetInCU: 0x7DDF, offset: 0x7DDF, size: 0x8, addend: 0x0, symName: __ZN5Eigen8internal17resize_if_allowedINS_6MatrixIdLin1ELin1ELi0ELin1ELin1EEENS_13CwiseBinaryOpINS0_13scalar_sum_opIddEEKNS4_IS6_KNS4_IS6_KNS4_IS6_KNS4_IS6_KNS4_IS6_KNS4_IS6_KNS4_IS6_KNS4_IS6_KNS4_IS6_KNS4_IS6_KNS4_INS0_17scalar_product_opIddEEKNS_12ArrayWrapperIS3_EESB_EESD_EESD_EESD_EESD_EESD_EESD_EESD_EESD_EESD_EESD_EESD_EEddEEvRT_RKT0_RKNS0_9assign_opIT1_T2_EE, symObjAddr: 0xCFE8, symBinAddr: 0x100010458, symSize: 0xF8 }
  - { offsetInCU: 0x7E65, offset: 0x7E65, size: 0x8, addend: 0x0, symName: __ZN5Eigen8internal24call_assignment_no_aliasINS_6MatrixIdLin1ELin1ELi0ELin1ELin1EEENS_14CwiseNullaryOpINS0_18scalar_constant_opIdEES3_EENS0_9assign_opIddEEEEvRT_RKT0_RKT1_, symObjAddr: 0xF5C8, symBinAddr: 0x100012A38, symSize: 0x3C }
  - { offsetInCU: 0x7F33, offset: 0x7F33, size: 0x8, addend: 0x0, symName: __ZN5Eigen8internal18check_for_aliasingINS_6MatrixIdLin1ELin1ELi0ELin1ELin1EEENS_14CwiseNullaryOpINS0_18scalar_constant_opIdEES3_EEEEvRKT_RKT0_, symObjAddr: 0xF644, symBinAddr: 0x100012AB4, symSize: 0x60 }
  - { offsetInCU: 0x7F7E, offset: 0x7F7E, size: 0x8, addend: 0x0, symName: __ZN5Eigen8internal26call_dense_assignment_loopINS_6MatrixIdLin1ELin1ELi0ELin1ELin1EEEEEvRT_RKNS_14CwiseNullaryOpINS0_18scalar_constant_opINS4_6ScalarEEES4_EERKNS0_9assign_opIS8_S8_EE, symObjAddr: 0xF6A4, symBinAddr: 0x100012B14, symSize: 0x6C }
  - { offsetInCU: 0x800D, offset: 0x800D, size: 0x8, addend: 0x0, symName: __ZN5Eigen8internal17resize_if_allowedINS_6MatrixIdLin1ELin1ELi0ELin1ELin1EEENS_14CwiseNullaryOpINS0_18scalar_constant_opIdEES3_EEddEEvRT_RKT0_RKNS0_9assign_opIT1_T2_EE, symObjAddr: 0xF724, symBinAddr: 0x100012B94, symSize: 0xF8 }
  - { offsetInCU: 0x8093, offset: 0x8093, size: 0x8, addend: 0x0, symName: __ZN5Eigen8internal24call_assignment_no_aliasINS_6MatrixIdLin1ELin1ELi0ELin1ELin1EEENS_13CwiseBinaryOpINS0_13scalar_sum_opIddEEKNS_12ArrayWrapperIS3_EES9_EENS0_9assign_opIddEEEEvRT_RKT0_RKT1_, symObjAddr: 0xFDE8, symBinAddr: 0x100013258, symSize: 0x3C }
  - { offsetInCU: 0x8161, offset: 0x8161, size: 0x8, addend: 0x0, symName: __ZN5Eigen8internal18check_for_aliasingINS_6MatrixIdLin1ELin1ELi0ELin1ELin1EEENS_13CwiseBinaryOpINS0_13scalar_sum_opIddEEKNS_12ArrayWrapperIS3_EES9_EEEEvRKT_RKT0_, symObjAddr: 0xFE64, symBinAddr: 0x1000132D4, symSize: 0x60 }
  - { offsetInCU: 0x81AC, offset: 0x81AC, size: 0x8, addend: 0x0, symName: __ZN5Eigen8internal26call_dense_assignment_loopINS_6MatrixIdLin1ELin1ELi0ELin1ELin1EEENS_13CwiseBinaryOpINS0_13scalar_sum_opIddEEKNS_12ArrayWrapperIS3_EES9_EENS0_9assign_opIddEEEEvRT_RKT0_RKT1_, symObjAddr: 0xFEC4, symBinAddr: 0x100013334, symSize: 0xE8 }
  - { offsetInCU: 0x829E, offset: 0x829E, size: 0x8, addend: 0x0, symName: __ZN5Eigen8internal17resize_if_allowedINS_6MatrixIdLin1ELin1ELi0ELin1ELin1EEENS_13CwiseBinaryOpINS0_13scalar_sum_opIddEEKNS_12ArrayWrapperIS3_EES9_EEddEEvRT_RKT0_RKNS0_9assign_opIT1_T2_EE, symObjAddr: 0xFFF4, symBinAddr: 0x100013464, symSize: 0xF8 }
  - { offsetInCU: 0x8415, offset: 0x8415, size: 0x8, addend: 0x0, symName: __ZN5Eigen8internalL21first_default_alignedINS_6MatrixIdLin1ELin1ELi0ELin1ELin1EEEEElRKNS_9DenseBaseIT_EE, symObjAddr: 0x10CA0, symBinAddr: 0x100014110, symSize: 0x24 }
  - { offsetInCU: 0x844C, offset: 0x844C, size: 0x8, addend: 0x0, symName: __ZN5Eigen8internalL13first_alignedILi16ENS_6MatrixIdLin1ELin1ELi0ELin1ELin1EEEEElRKNS_9DenseBaseIT0_EE, symObjAddr: 0x10CEC, symBinAddr: 0x10001415C, symSize: 0x28 }
  - { offsetInCU: 0x84CB, offset: 0x84CB, size: 0x8, addend: 0x0, symName: __ZN5Eigen8internal6preduxI19__simd128_float64_tEENS0_15unpacket_traitsIT_E4typeERKS4_, symObjAddr: 0x10D28, symBinAddr: 0x100014198, symSize: 0x48 }
  - { offsetInCU: 0x8609, offset: 0x8609, size: 0x8, addend: 0x0, symName: __ZN5EigenL6lastp1E, symObjAddr: 0x3C26EE, symBinAddr: 0x10001C001, symSize: 0x0 }
  - { offsetInCU: 0x8622, offset: 0x8622, size: 0x8, addend: 0x0, symName: __ZN5EigenL3allE, symObjAddr: 0x3C26F0, symBinAddr: 0x10001C003, symSize: 0x0 }
  - { offsetInCU: 0x26B6A, offset: 0x26B6A, size: 0x8, addend: 0x0, symName: __ZN5Eigen3fixILi1EEENS_8internal8FixedIntIXT_EEEv, symObjAddr: 0x74, symBinAddr: 0x1000034E4, symSize: 0x20 }
  - { offsetInCU: 0x26BCA, offset: 0x26BCA, size: 0x8, addend: 0x0, symName: __ZN5Eigen6numext4swapIPdEEvRT_S4_, symObjAddr: 0x75CC, symBinAddr: 0x10000AA3C, symSize: 0x2C }
  - { offsetInCU: 0x26C0C, offset: 0x26C0C, size: 0x8, addend: 0x0, symName: __ZN5Eigen6numext4swapIlEEvRT_S3_, symObjAddr: 0x75F8, symBinAddr: 0x10000AA68, symSize: 0x2C }
  - { offsetInCU: 0x29FB9, offset: 0x29FB9, size: 0x8, addend: 0x0, symName: __ZNSt3__124__put_character_sequenceB7v160006IcNS_11char_traitsIcEEEERNS_13basic_ostreamIT_T0_EES7_PKS4_m, symObjAddr: 0x10D9C, symBinAddr: 0x10001420C, symSize: 0x1F4 }
  - { offsetInCU: 0x2B8F0, offset: 0x2B8F0, size: 0x8, addend: 0x0, symName: __ZNSt3__1lsB7v160006INS_11char_traitsIcEEEERNS_13basic_ostreamIcT_EES6_PKc, symObjAddr: 0x3964, symBinAddr: 0x100006DD4, symSize: 0x48 }
  - { offsetInCU: 0x2B936, offset: 0x2B936, size: 0x8, addend: 0x0, symName: __ZNSt3__14endlB7v160006IcNS_11char_traitsIcEEEERNS_13basic_ostreamIT_T0_EES7_, symObjAddr: 0x39D8, symBinAddr: 0x100006E48, symSize: 0x58 }
  - { offsetInCU: 0x2B976, offset: 0x2B976, size: 0x8, addend: 0x0, symName: __ZNSt3__13minB7v160006IlEERKT_S3_S3_, symObjAddr: 0x5E34, symBinAddr: 0x1000092A4, symSize: 0x2C }
  - { offsetInCU: 0x2B9B9, offset: 0x2B9B9, size: 0x8, addend: 0x0, symName: __ZNSt3__13minB7v160006IlNS_6__lessIllEEEERKT_S5_S5_T0_, symObjAddr: 0x5E60, symBinAddr: 0x1000092D0, symSize: 0x54 }
  - { offsetInCU: 0x2BA4E, offset: 0x2BA4E, size: 0x8, addend: 0x0, symName: __ZNSt3__14swapB7v160006IPdEEvRT_S3_, symObjAddr: 0x7624, symBinAddr: 0x10000AA94, symSize: 0x3C }
  - { offsetInCU: 0x2BA9F, offset: 0x2BA9F, size: 0x8, addend: 0x0, symName: __ZNSt3__14swapB7v160006IlEEvRT_S2_, symObjAddr: 0x7660, symBinAddr: 0x10000AAD0, symSize: 0x3C }
  - { offsetInCU: 0x2BAF0, offset: 0x2BAF0, size: 0x8, addend: 0x0, symName: __ZNSt3__16fill_nB7v160006IPdldEET_S2_T0_RKT1_, symObjAddr: 0xF81C, symBinAddr: 0x100012C8C, symSize: 0x44 }
  - { offsetInCU: 0x2BB53, offset: 0x2BB53, size: 0x8, addend: 0x0, symName: __ZNSt3__18__fill_nB7v160006IPdldEET_S2_T0_RKT1_, symObjAddr: 0xF890, symBinAddr: 0x100012D00, symSize: 0x64 }
  - { offsetInCU: 0x2BBB6, offset: 0x2BBB6, size: 0x8, addend: 0x0, symName: __ZNSt3__121__convert_to_integralB7v160006El, symObjAddr: 0xF8F4, symBinAddr: 0x100012D64, symSize: 0x14 }
  - { offsetInCU: 0x2BBE2, offset: 0x2BBE2, size: 0x8, addend: 0x0, symName: __ZNSt3__116__pad_and_outputB7v160006IcNS_11char_traitsIcEEEENS_19ostreambuf_iteratorIT_T0_EES6_PKS4_S8_S8_RNS_8ios_baseES4_, symObjAddr: 0x10FF4, symBinAddr: 0x100014464, symSize: 0x248 }
  - { offsetInCU: 0x2BCB1, offset: 0x2BCB1, size: 0x8, addend: 0x0, symName: __ZNSt3__119__debug_db_insert_cB7v160006INS_12basic_stringIcNS_11char_traitsIcEENS_9allocatorIcEEEEEEvPT_, symObjAddr: 0x114B0, symBinAddr: 0x100014920, symSize: 0x10 }
  - { offsetInCU: 0x2BCE2, offset: 0x2BCE2, size: 0x8, addend: 0x0, symName: __ZNSt3__112__to_addressB7v160006IKcEEPT_S3_, symObjAddr: 0x1157C, symBinAddr: 0x1000149EC, symSize: 0x14 }
  - { offsetInCU: 0x2BD17, offset: 0x2BD17, size: 0x8, addend: 0x0, symName: __ZNSt3__130__libcpp_is_constant_evaluatedB7v160006Ev, symObjAddr: 0x116A8, symBinAddr: 0x100014B18, symSize: 0xC }
  - { offsetInCU: 0x2BD67, offset: 0x2BD67, size: 0x8, addend: 0x0, symName: __ZNSt3__19use_facetB7v160006INS_5ctypeIcEEEERKT_RKNS_6localeE, symObjAddr: 0x11860, symBinAddr: 0x100014CD0, symSize: 0x2C }
  - { offsetInCU: 0x2C236, offset: 0x2C236, size: 0x8, addend: 0x0, symName: __ZNSt3__118__constexpr_strlenB7v160006EPKc, symObjAddr: 0x118F8, symBinAddr: 0x100014D68, symSize: 0x24 }
  - { offsetInCU: 0x2CCBF, offset: 0x2CCBF, size: 0x8, addend: 0x0, symName: __ZN5Eigen8internal21dense_assignment_loopINS0_31generic_dense_assignment_kernelINS0_9evaluatorINS_6MatrixIdLin1ELin1ELi0ELin1ELin1EEEEENS3_INS_5BlockIS5_Lin1ELin1ELb1EEEEENS0_9assign_opIddEELi0EEELi3ELi0EE3runERSC_, symObjAddr: 0x4D80, symBinAddr: 0x1000081F0, symSize: 0xA8 }
  - { offsetInCU: 0x2CFE0, offset: 0x2CFE0, size: 0x8, addend: 0x0, symName: __ZN5Eigen8internal21dense_assignment_loopINS0_31generic_dense_assignment_kernelINS0_9evaluatorINS_5BlockINS_6MatrixIdLin1ELin1ELi0ELin1ELin1EEELin1ELin1ELb0EEEEES8_NS0_9assign_opIddEELi0EEELi4ELi0EE3runERSB_, symObjAddr: 0x68DC, symBinAddr: 0x100009D4C, symSize: 0x214 }
  - { offsetInCU: 0x2E07C, offset: 0x2E07C, size: 0x8, addend: 0x0, symName: __ZN5Eigen8internal21dense_assignment_loopINS0_31generic_dense_assignment_kernelINS0_9evaluatorINS_6MatrixIdLin1ELin1ELi0ELin1ELin1EEEEENS3_INS_13CwiseBinaryOpINS0_13scalar_sum_opIddEEKNS7_IS9_KNS7_IS9_KNS7_IS9_KNS7_IS9_KNS7_INS0_17scalar_product_opIddEEKNS_12ArrayWrapperIS5_EESE_EESG_EESG_EESG_EESG_EESG_EEEENS0_9assign_opIddEELi0EEELi3ELi0EE3runERST_, symObjAddr: 0x8DDC, symBinAddr: 0x10000C24C, symSize: 0xA8 }
  - { offsetInCU: 0x2E145, offset: 0x2E145, size: 0x8, addend: 0x0, symName: __ZN5Eigen8internal21dense_assignment_loopINS0_31generic_dense_assignment_kernelINS0_9evaluatorINS_6MatrixIdLin1ELin1ELi0ELin1ELin1EEEEENS3_INS_5BlockIS5_Lin1ELin1ELb0EEEEENS0_9assign_opIddEELi0EEELi4ELi0EE3runERSC_, symObjAddr: 0xB650, symBinAddr: 0x10000EAC0, symSize: 0x1D8 }
  - { offsetInCU: 0x2F14C, offset: 0x2F14C, size: 0x8, addend: 0x0, symName: __ZN5Eigen8internal21dense_assignment_loopINS0_31generic_dense_assignment_kernelINS0_9evaluatorINS_6MatrixIdLin1ELin1ELi0ELin1ELin1EEEEENS3_INS_13CwiseBinaryOpINS0_13scalar_sum_opIddEEKNS7_IS9_KNS7_IS9_KNS7_IS9_KNS7_IS9_KNS7_IS9_KNS7_IS9_KNS7_IS9_KNS7_IS9_KNS7_IS9_KNS7_IS9_KNS7_INS0_17scalar_product_opIddEEKNS_12ArrayWrapperIS5_EESE_EESG_EESG_EESG_EESG_EESG_EESG_EESG_EESG_EESG_EESG_EESG_EEEENS0_9assign_opIddEELi0EEELi3ELi0EE3runERS15_, symObjAddr: 0xD12C, symBinAddr: 0x10001059C, symSize: 0xA8 }
  - { offsetInCU: 0x2F477, offset: 0x2F477, size: 0x8, addend: 0x0, symName: __ZN5Eigen8internal21dense_assignment_loopINS0_31generic_dense_assignment_kernelINS0_9evaluatorINS_6MatrixIdLin1ELin1ELi0ELin1ELin1EEEEENS3_INS_13CwiseBinaryOpINS0_13scalar_sum_opIddEEKNS_12ArrayWrapperIS5_EESC_EEEENS0_9assign_opIddEELi0EEELi3ELi0EE3runERSH_, symObjAddr: 0x10138, symBinAddr: 0x1000135A8, symSize: 0xA8 }
  - { offsetInCU: 0x31931, offset: 0x31931, size: 0x8, addend: 0x0, symName: __ZN5Eigen8symbolic10SymbolExprINS_8internal17symbolic_last_tagEEC1Ev, symObjAddr: 0x0, symBinAddr: 0x100003470, symSize: 0x2C }
  - { offsetInCU: 0x3195B, offset: 0x3195B, size: 0x8, addend: 0x0, symName: __ZNK5Eigen8symbolic8BaseExprINS0_10SymbolExprINS_8internal17symbolic_last_tagEEEEplILi1EEENS0_7AddExprIS5_NS0_9ValueExprINS3_8FixedIntIXT_EEEEEEESB_, symObjAddr: 0x2C, symBinAddr: 0x10000349C, symSize: 0x48 }
  - { offsetInCU: 0x31996, offset: 0x31996, size: 0x8, addend: 0x0, symName: __ZN5Eigen8internal5all_tC1Ev, symObjAddr: 0x94, symBinAddr: 0x100003504, symSize: 0x2C }
  - { offsetInCU: 0x319BF, offset: 0x319BF, size: 0x8, addend: 0x0, symName: __Z17sumNNi_vectorizedRN5Eigen6MatrixIdLin1ELin1ELi0ELin1ELin1EEES2_S2_, symObjAddr: 0xC0, symBinAddr: 0x100003530, symSize: 0x62C }
  - { offsetInCU: 0x31A65, offset: 0x31A65, size: 0x8, addend: 0x0, symName: __ZN5Eigen9DenseBaseINS_6MatrixIdLin1ELin1ELi0ELin1ELin1EEEE9rightColsIlEENS3_13NColsBlockXprIXsr8internal15get_fixed_valueIT_EE5valueEE4TypeES6_, symObjAddr: 0x6EC, symBinAddr: 0x100003B5C, symSize: 0x9C }
  - { offsetInCU: 0x31AA3, offset: 0x31AA3, size: 0x8, addend: 0x0, symName: __ZNK5Eigen15PlainObjectBaseINS_6MatrixIdLin1ELin1ELi0ELin1ELin1EEEE4colsEv, symObjAddr: 0x788, symBinAddr: 0x100003BF8, symSize: 0x24 }
  - { offsetInCU: 0x31ACE, offset: 0x31ACE, size: 0x8, addend: 0x0, symName: __ZN5Eigen6MatrixIdLin1ELin1ELi0ELin1ELin1EEC1INS_5BlockIS1_Lin1ELin1ELb1EEEEERKNS_9EigenBaseIT_EE, symObjAddr: 0x7AC, symBinAddr: 0x100003C1C, symSize: 0x34 }
  - { offsetInCU: 0x31B10, offset: 0x31B10, size: 0x8, addend: 0x0, symName: __ZN5Eigen15PlainObjectBaseINS_6MatrixIdLin1ELin1ELi0ELin1ELin1EEEE18conservativeResizeEll, symObjAddr: 0x7E0, symBinAddr: 0x100003C50, symSize: 0x34 }
  - { offsetInCU: 0x31B54, offset: 0x31B54, size: 0x8, addend: 0x0, symName: __ZNK5Eigen15PlainObjectBaseINS_6MatrixIdLin1ELin1ELi0ELin1ELin1EEEE4rowsEv, symObjAddr: 0x814, symBinAddr: 0x100003C84, symSize: 0x24 }
  - { offsetInCU: 0x31B7A, offset: 0x31B7A, size: 0x8, addend: 0x0, symName: __ZN5Eigen9DenseBaseINS_6MatrixIdLin1ELin1ELi0ELin1ELin1EEEE8leftColsIlEENS3_13NColsBlockXprIXsr8internal15get_fixed_valueIT_EE5valueEE4TypeES6_, symObjAddr: 0x838, symBinAddr: 0x100003CA8, symSize: 0x74 }
  - { offsetInCU: 0x31BB8, offset: 0x31BB8, size: 0x8, addend: 0x0, symName: __ZN5Eigen10MatrixBaseINS_6MatrixIdLin1ELin1ELi0ELin1ELin1EEEE5arrayEv, symObjAddr: 0x8AC, symBinAddr: 0x100003D1C, symSize: 0x34 }
  - { offsetInCU: 0x31BDE, offset: 0x31BDE, size: 0x8, addend: 0x0, symName: __ZNK5Eigen9ArrayBaseINS_12ArrayWrapperINS_6MatrixIdLin1ELin1ELi0ELin1ELin1EEEEEEmlIS4_EEKNS_13CwiseBinaryOpINS_8internal17scalar_product_opIdNS8_6traitsIT_E6ScalarEEEKS4_KSB_EERKNS0_ISB_EE, symObjAddr: 0x8E0, symBinAddr: 0x100003D50, symSize: 0x60 }
  - { offsetInCU: 0x31C1B, offset: 0x31C1B, size: 0x8, addend: 0x0, symName: __ZNK5Eigen9ArrayBaseINS_13CwiseBinaryOpINS_8internal17scalar_product_opIddEEKNS_12ArrayWrapperINS_6MatrixIdLin1ELin1ELi0ELin1ELin1EEEEES9_EEEplISA_EEKNS1_INS2_13scalar_sum_opIdNS2_6traitsIT_E6ScalarEEEKSA_KSF_EERKNS0_ISF_EE, symObjAddr: 0x940, symBinAddr: 0x100003DB0, symSize: 0x60 }
  - { offsetInCU: 0x31C58, offset: 0x31C58, size: 0x8, addend: 0x0, symName: __ZNK5Eigen9ArrayBaseINS_13CwiseBinaryOpINS_8internal13scalar_sum_opIddEEKNS1_INS2_17scalar_product_opIddEEKNS_12ArrayWrapperINS_6MatrixIdLin1ELin1ELi0ELin1ELin1EEEEESB_EESD_EEEplISC_EEKNS1_INS3_IdNS2_6traitsIT_E6ScalarEEEKSE_KSI_EERKNS0_ISI_EE, symObjAddr: 0x9A0, symBinAddr: 0x100003E10, symSize: 0x60 }
  - { offsetInCU: 0x31C95, offset: 0x31C95, size: 0x8, addend: 0x0, symName: __ZNK5Eigen9ArrayBaseINS_13CwiseBinaryOpINS_8internal13scalar_sum_opIddEEKNS1_IS4_KNS1_INS2_17scalar_product_opIddEEKNS_12ArrayWrapperINS_6MatrixIdLin1ELin1ELi0ELin1ELin1EEEEESB_EESD_EESD_EEEplISC_EEKNS1_INS3_IdNS2_6traitsIT_E6ScalarEEEKSG_KSK_EERKNS0_ISK_EE, symObjAddr: 0xA00, symBinAddr: 0x100003E70, symSize: 0x60 }
  - { offsetInCU: 0x31CD2, offset: 0x31CD2, size: 0x8, addend: 0x0, symName: __ZNK5Eigen9ArrayBaseINS_13CwiseBinaryOpINS_8internal13scalar_sum_opIddEEKNS1_IS4_KNS1_IS4_KNS1_INS2_17scalar_product_opIddEEKNS_12ArrayWrapperINS_6MatrixIdLin1ELin1ELi0ELin1ELin1EEEEESB_EESD_EESD_EESD_EEEplISC_EEKNS1_INS3_IdNS2_6traitsIT_E6ScalarEEEKSI_KSM_EERKNS0_ISM_EE, symObjAddr: 0xA60, symBinAddr: 0x100003ED0, symSize: 0x60 }
  - { offsetInCU: 0x31D0F, offset: 0x31D0F, size: 0x8, addend: 0x0, symName: __ZNK5Eigen9ArrayBaseINS_13CwiseBinaryOpINS_8internal13scalar_sum_opIddEEKNS1_IS4_KNS1_IS4_KNS1_IS4_KNS1_INS2_17scalar_product_opIddEEKNS_12ArrayWrapperINS_6MatrixIdLin1ELin1ELi0ELin1ELin1EEEEESB_EESD_EESD_EESD_EESD_EEEplISC_EEKNS1_INS3_IdNS2_6traitsIT_E6ScalarEEEKSK_KSO_EERKNS0_ISO_EE, symObjAddr: 0xAC0, symBinAddr: 0x100003F30, symSize: 0x60 }
  - { offsetInCU: 0x31D51, offset: 0x31D51, size: 0x8, addend: 0x0, symName: __ZN5Eigen6MatrixIdLin1ELin1ELi0ELin1ELin1EEC1INS_13CwiseBinaryOpINS_8internal13scalar_sum_opIddEEKNS3_IS6_KNS3_IS6_KNS3_IS6_KNS3_IS6_KNS3_INS4_17scalar_product_opIddEEKNS_12ArrayWrapperIS1_EESB_EESD_EESD_EESD_EESD_EESD_EEEERKNS_9EigenBaseIT_EE, symObjAddr: 0xB20, symBinAddr: 0x100003F90, symSize: 0x34 }
  - { offsetInCU: 0x31D93, offset: 0x31D93, size: 0x8, addend: 0x0, symName: __ZN5Eigen6MatrixIdLin1ELin1ELi0ELin1ELin1EED1Ev, symObjAddr: 0xB54, symBinAddr: 0x100003FC4, symSize: 0x2C }
  - { offsetInCU: 0x31DBE, offset: 0x31DBE, size: 0x8, addend: 0x0, symName: __Z17sumNNj_vectorizedRN5Eigen6MatrixIdLin1ELin1ELi0ELin1ELin1EEES2_S2_, symObjAddr: 0xB8C, symBinAddr: 0x100003FFC, symSize: 0x62C }
  - { offsetInCU: 0x31E64, offset: 0x31E64, size: 0x8, addend: 0x0, symName: __ZN5Eigen9DenseBaseINS_6MatrixIdLin1ELin1ELi0ELin1ELin1EEEE10bottomRowsIlEENS3_13NRowsBlockXprIXsr8internal15get_fixed_valueIT_EE5valueEE4TypeES6_, symObjAddr: 0x11B8, symBinAddr: 0x100004628, symSize: 0x9C }
  - { offsetInCU: 0x31EA7, offset: 0x31EA7, size: 0x8, addend: 0x0, symName: __ZN5Eigen6MatrixIdLin1ELin1ELi0ELin1ELin1EEC1INS_5BlockIS1_Lin1ELin1ELb0EEEEERKNS_9EigenBaseIT_EE, symObjAddr: 0x1254, symBinAddr: 0x1000046C4, symSize: 0x34 }
  - { offsetInCU: 0x31EE9, offset: 0x31EE9, size: 0x8, addend: 0x0, symName: __ZN5Eigen9DenseBaseINS_6MatrixIdLin1ELin1ELi0ELin1ELin1EEEE7topRowsIlEENS3_13NRowsBlockXprIXsr8internal15get_fixed_valueIT_EE5valueEE4TypeES6_, symObjAddr: 0x1288, symBinAddr: 0x1000046F8, symSize: 0x74 }
  - { offsetInCU: 0x31F26, offset: 0x31F26, size: 0x8, addend: 0x0, symName: __Z18sumNNij_vectorizedRN5Eigen6MatrixIdLin1ELin1ELi0ELin1ELin1EEES2_S2_, symObjAddr: 0x12FC, symBinAddr: 0x10000476C, symSize: 0xF8C }
  - { offsetInCU: 0x32080, offset: 0x32080, size: 0x8, addend: 0x0, symName: __ZNK5Eigen9ArrayBaseINS_13CwiseBinaryOpINS_8internal13scalar_sum_opIddEEKNS1_IS4_KNS1_IS4_KNS1_IS4_KNS1_IS4_KNS1_INS2_17scalar_product_opIddEEKNS_12ArrayWrapperINS_6MatrixIdLin1ELin1ELi0ELin1ELin1EEEEESB_EESD_EESD_EESD_EESD_EESD_EEEplISC_EEKNS1_INS3_IdNS2_6traitsIT_E6ScalarEEEKSM_KSQ_EERKNS0_ISQ_EE, symObjAddr: 0x2288, symBinAddr: 0x1000056F8, symSize: 0x60 }
  - { offsetInCU: 0x320BD, offset: 0x320BD, size: 0x8, addend: 0x0, symName: __ZNK5Eigen9ArrayBaseINS_13CwiseBinaryOpINS_8internal13scalar_sum_opIddEEKNS1_IS4_KNS1_IS4_KNS1_IS4_KNS1_IS4_KNS1_IS4_KNS1_INS2_17scalar_product_opIddEEKNS_12ArrayWrapperINS_6MatrixIdLin1ELin1ELi0ELin1ELin1EEEEESB_EESD_EESD_EESD_EESD_EESD_EESD_EEEplISC_EEKNS1_INS3_IdNS2_6traitsIT_E6ScalarEEEKSO_KSS_EERKNS0_ISS_EE, symObjAddr: 0x22E8, symBinAddr: 0x100005758, symSize: 0x60 }
  - { offsetInCU: 0x320FA, offset: 0x320FA, size: 0x8, addend: 0x0, symName: __ZNK5Eigen9ArrayBaseINS_13CwiseBinaryOpINS_8internal13scalar_sum_opIddEEKNS1_IS4_KNS1_IS4_KNS1_IS4_KNS1_IS4_KNS1_IS4_KNS1_IS4_KNS1_INS2_17scalar_product_opIddEEKNS_12ArrayWrapperINS_6MatrixIdLin1ELin1ELi0ELin1ELin1EEEEESB_EESD_EESD_EESD_EESD_EESD_EESD_EESD_EEEplISC_EEKNS1_INS3_IdNS2_6traitsIT_E6ScalarEEEKSQ_KSU_EERKNS0_ISU_EE, symObjAddr: 0x2348, symBinAddr: 0x1000057B8, symSize: 0x60 }
  - { offsetInCU: 0x32137, offset: 0x32137, size: 0x8, addend: 0x0, symName: __ZNK5Eigen9ArrayBaseINS_13CwiseBinaryOpINS_8internal13scalar_sum_opIddEEKNS1_IS4_KNS1_IS4_KNS1_IS4_KNS1_IS4_KNS1_IS4_KNS1_IS4_KNS1_IS4_KNS1_INS2_17scalar_product_opIddEEKNS_12ArrayWrapperINS_6MatrixIdLin1ELin1ELi0ELin1ELin1EEEEESB_EESD_EESD_EESD_EESD_EESD_EESD_EESD_EESD_EEEplISC_EEKNS1_INS3_IdNS2_6traitsIT_E6ScalarEEEKSS_KSW_EERKNS0_ISW_EE, symObjAddr: 0x23A8, symBinAddr: 0x100005818, symSize: 0x60 }
  - { offsetInCU: 0x32174, offset: 0x32174, size: 0x8, addend: 0x0, symName: __ZNK5Eigen9ArrayBaseINS_13CwiseBinaryOpINS_8internal13scalar_sum_opIddEEKNS1_IS4_KNS1_IS4_KNS1_IS4_KNS1_IS4_KNS1_IS4_KNS1_IS4_KNS1_IS4_KNS1_IS4_KNS1_INS2_17scalar_product_opIddEEKNS_12ArrayWrapperINS_6MatrixIdLin1ELin1ELi0ELin1ELin1EEEEESB_EESD_EESD_EESD_EESD_EESD_EESD_EESD_EESD_EESD_EEEplISC_EEKNS1_INS3_IdNS2_6traitsIT_E6ScalarEEEKSU_KSY_EERKNS0_ISY_EE, symObjAddr: 0x2408, symBinAddr: 0x100005878, symSize: 0x60 }
  - { offsetInCU: 0x321B1, offset: 0x321B1, size: 0x8, addend: 0x0, symName: __ZNK5Eigen9ArrayBaseINS_13CwiseBinaryOpINS_8internal13scalar_sum_opIddEEKNS1_IS4_KNS1_IS4_KNS1_IS4_KNS1_IS4_KNS1_IS4_KNS1_IS4_KNS1_IS4_KNS1_IS4_KNS1_IS4_KNS1_INS2_17scalar_product_opIddEEKNS_12ArrayWrapperINS_6MatrixIdLin1ELin1ELi0ELin1ELin1EEEEESB_EESD_EESD_EESD_EESD_EESD_EESD_EESD_EESD_EESD_EESD_EEEplISC_EEKNS1_INS3_IdNS2_6traitsIT_E6ScalarEEEKSW_KS10_EERKNS0_IS10_EE, symObjAddr: 0x2468, symBinAddr: 0x1000058D8, symSize: 0x60 }
  - { offsetInCU: 0x321F3, offset: 0x321F3, size: 0x8, addend: 0x0, symName: __ZN5Eigen6MatrixIdLin1ELin1ELi0ELin1ELin1EEC1INS_13CwiseBinaryOpINS_8internal13scalar_sum_opIddEEKNS3_IS6_KNS3_IS6_KNS3_IS6_KNS3_IS6_KNS3_IS6_KNS3_IS6_KNS3_IS6_KNS3_IS6_KNS3_IS6_KNS3_IS6_KNS3_INS4_17scalar_product_opIddEEKNS_12ArrayWrapperIS1_EESB_EESD_EESD_EESD_EESD_EESD_EESD_EESD_EESD_EESD_EESD_EESD_EEEERKNS_9EigenBaseIT_EE, symObjAddr: 0x24C8, symBinAddr: 0x100005938, symSize: 0x34 }
  - { offsetInCU: 0x32234, offset: 0x32234, size: 0x8, addend: 0x0, symName: __Z17sum2Ni_vectorizedRN5Eigen6MatrixIdLin1ELin1ELi0ELin1ELin1EEES2_S2_, symObjAddr: 0x24FC, symBinAddr: 0x10000596C, symSize: 0x62C }
  - { offsetInCU: 0x322D9, offset: 0x322D9, size: 0x8, addend: 0x0, symName: __Z17sum2Nj_vectorizedRN5Eigen6MatrixIdLin1ELin1ELi0ELin1ELin1EEES2_S2_, symObjAddr: 0x2B28, symBinAddr: 0x100005F98, symSize: 0x62C }
  - { offsetInCU: 0x3237F, offset: 0x3237F, size: 0x8, addend: 0x0, symName: _main, symObjAddr: 0x3154, symBinAddr: 0x1000065C4, symSize: 0x5A0 }
  - { offsetInCU: 0x324A3, offset: 0x324A3, size: 0x8, addend: 0x0, symName: __ZN5Eigen9DenseBaseINS_6MatrixIdLin1ELin1ELi0ELin1ELin1EEEE4ZeroEll, symObjAddr: 0x36F4, symBinAddr: 0x100006B64, symSize: 0x40 }
  - { offsetInCU: 0x324DE, offset: 0x324DE, size: 0x8, addend: 0x0, symName: __ZN5Eigen6MatrixIdLin1ELin1ELi0ELin1ELin1EEC1INS_14CwiseNullaryOpINS_8internal18scalar_constant_opIdEES1_EEEERKNS_9EigenBaseIT_EE, symObjAddr: 0x3734, symBinAddr: 0x100006BA4, symSize: 0x34 }
  - { offsetInCU: 0x32520, offset: 0x32520, size: 0x8, addend: 0x0, symName: __ZN5Eigen15DenseCoeffsBaseINS_6MatrixIdLin1ELin1ELi0ELin1ELin1EEELi1EEclEll, symObjAddr: 0x3768, symBinAddr: 0x100006BD8, symSize: 0xF4 }
  - { offsetInCU: 0x32564, offset: 0x32564, size: 0x8, addend: 0x0, symName: __ZNK5Eigen9ArrayBaseINS_12ArrayWrapperINS_6MatrixIdLin1ELin1ELi0ELin1ELin1EEEEEEplIS4_EEKNS_13CwiseBinaryOpINS_8internal13scalar_sum_opIdNS8_6traitsIT_E6ScalarEEEKS4_KSB_EERKNS0_ISB_EE, symObjAddr: 0x385C, symBinAddr: 0x100006CCC, symSize: 0x60 }
  - { offsetInCU: 0x325A6, offset: 0x325A6, size: 0x8, addend: 0x0, symName: __ZN5Eigen6MatrixIdLin1ELin1ELi0ELin1ELin1EEC1INS_13CwiseBinaryOpINS_8internal13scalar_sum_opIddEEKNS_12ArrayWrapperIS1_EES9_EEEERKNS_9EigenBaseIT_EE, symObjAddr: 0x38BC, symBinAddr: 0x100006D2C, symSize: 0x34 }
  - { offsetInCU: 0x325E8, offset: 0x325E8, size: 0x8, addend: 0x0, symName: __ZNK5Eigen9DenseBaseINS_6MatrixIdLin1ELin1ELi0ELin1ELin1EEEE3sumEv, symObjAddr: 0x38F0, symBinAddr: 0x100006D60, symSize: 0x74 }
  - { offsetInCU: 0x32611, offset: 0x32611, size: 0x8, addend: 0x0, symName: __ZNSt3__113basic_ostreamIcNS_11char_traitsIcEEElsB7v160006EPFRS3_S4_E, symObjAddr: 0x39AC, symBinAddr: 0x100006E1C, symSize: 0x2C }
  - { offsetInCU: 0x32645, offset: 0x32645, size: 0x8, addend: 0x0, symName: __ZN5Eigen8internal5all_tC2Ev, symObjAddr: 0x3A30, symBinAddr: 0x100006EA0, symSize: 0x14 }
  - { offsetInCU: 0x3266F, offset: 0x3266F, size: 0x8, addend: 0x0, symName: __ZN5Eigen6MatrixIdLin1ELin1ELi0ELin1ELin1EED2Ev, symObjAddr: 0x3A44, symBinAddr: 0x100006EB4, symSize: 0x2C }
  - { offsetInCU: 0x3269B, offset: 0x3269B, size: 0x8, addend: 0x0, symName: __ZN5Eigen15PlainObjectBaseINS_6MatrixIdLin1ELin1ELi0ELin1ELin1EEEED2Ev, symObjAddr: 0x3A70, symBinAddr: 0x100006EE0, symSize: 0x2C }
  - { offsetInCU: 0x326C7, offset: 0x326C7, size: 0x8, addend: 0x0, symName: __ZN5Eigen12DenseStorageIdLin1ELin1ELin1ELi0EED1Ev, symObjAddr: 0x3A9C, symBinAddr: 0x100006F0C, symSize: 0x2C }
  - { offsetInCU: 0x326F1, offset: 0x326F1, size: 0x8, addend: 0x0, symName: __ZN5Eigen12DenseStorageIdLin1ELin1ELin1ELi0EED2Ev, symObjAddr: 0x3AC8, symBinAddr: 0x100006F38, symSize: 0x3C }
  - { offsetInCU: 0x3271B, offset: 0x3271B, size: 0x8, addend: 0x0, symName: __ZN5Eigen8symbolic10SymbolExprINS_8internal17symbolic_last_tagEEC2Ev, symObjAddr: 0x3B74, symBinAddr: 0x100006FE4, symSize: 0x14 }
  - { offsetInCU: 0x32745, offset: 0x32745, size: 0x8, addend: 0x0, symName: __ZN5Eigen8internal8FixedIntILi1EEC1Ev, symObjAddr: 0x3B88, symBinAddr: 0x100006FF8, symSize: 0x2C }
  - { offsetInCU: 0x3276F, offset: 0x3276F, size: 0x8, addend: 0x0, symName: __ZN5Eigen8internal8FixedIntILi1EEC2Ev, symObjAddr: 0x3BB4, symBinAddr: 0x100007024, symSize: 0x14 }
  - { offsetInCU: 0x32799, offset: 0x32799, size: 0x8, addend: 0x0, symName: __ZNK5Eigen8symbolic8BaseExprINS0_10SymbolExprINS_8internal17symbolic_last_tagEEEE7derivedEv, symObjAddr: 0x3BC8, symBinAddr: 0x100007038, symSize: 0x14 }
  - { offsetInCU: 0x327BF, offset: 0x327BF, size: 0x8, addend: 0x0, symName: __ZN5Eigen8symbolic9ValueExprINS_8internal8FixedIntILi1EEEEC1Ev, symObjAddr: 0x3BDC, symBinAddr: 0x10000704C, symSize: 0x2C }
  - { offsetInCU: 0x327E9, offset: 0x327E9, size: 0x8, addend: 0x0, symName: __ZN5Eigen8symbolic7AddExprINS0_10SymbolExprINS_8internal17symbolic_last_tagEEENS0_9ValueExprINS3_8FixedIntILi1EEEEEEC1ERKS5_RKS9_, symObjAddr: 0x3C08, symBinAddr: 0x100007078, symSize: 0x3C }
  - { offsetInCU: 0x3282F, offset: 0x3282F, size: 0x8, addend: 0x0, symName: __ZN5Eigen8symbolic9ValueExprINS_8internal8FixedIntILi1EEEEC2Ev, symObjAddr: 0x3C44, symBinAddr: 0x1000070B4, symSize: 0x14 }
  - { offsetInCU: 0x32859, offset: 0x32859, size: 0x8, addend: 0x0, symName: __ZN5Eigen8symbolic7AddExprINS0_10SymbolExprINS_8internal17symbolic_last_tagEEENS0_9ValueExprINS3_8FixedIntILi1EEEEEEC2ERKS5_RKS9_, symObjAddr: 0x3C58, symBinAddr: 0x1000070C8, symSize: 0x1C }
  - { offsetInCU: 0x3289F, offset: 0x3289F, size: 0x8, addend: 0x0, symName: __ZNK5Eigen12DenseStorageIdLin1ELin1ELin1ELi0EE4colsEv, symObjAddr: 0x3C74, symBinAddr: 0x1000070E4, symSize: 0x18 }
  - { offsetInCU: 0x328C5, offset: 0x328C5, size: 0x8, addend: 0x0, symName: __ZN5Eigen9EigenBaseINS_6MatrixIdLin1ELin1ELi0ELin1ELin1EEEE7derivedEv, symObjAddr: 0x3C8C, symBinAddr: 0x1000070FC, symSize: 0x14 }
  - { offsetInCU: 0x328EB, offset: 0x328EB, size: 0x8, addend: 0x0, symName: __ZNK5Eigen9EigenBaseINS_6MatrixIdLin1ELin1ELi0ELin1ELin1EEEE4colsEv, symObjAddr: 0x3CA0, symBinAddr: 0x100007110, symSize: 0x28 }
  - { offsetInCU: 0x32911, offset: 0x32911, size: 0x8, addend: 0x0, symName: __ZNK5Eigen9EigenBaseINS_6MatrixIdLin1ELin1ELi0ELin1ELin1EEEE4rowsEv, symObjAddr: 0x3CE0, symBinAddr: 0x100007150, symSize: 0x28 }
  - { offsetInCU: 0x32937, offset: 0x32937, size: 0x8, addend: 0x0, symName: __ZN5Eigen5BlockINS_6MatrixIdLin1ELin1ELi0ELin1ELin1EEELin1ELin1ELb1EEC1ERS2_llll, symObjAddr: 0x3D08, symBinAddr: 0x100007178, symSize: 0x54 }
  - { offsetInCU: 0x329A7, offset: 0x329A7, size: 0x8, addend: 0x0, symName: __ZNK5Eigen9EigenBaseINS_6MatrixIdLin1ELin1ELi0ELin1ELin1EEEE7derivedEv, symObjAddr: 0x3D5C, symBinAddr: 0x1000071CC, symSize: 0x14 }
  - { offsetInCU: 0x329CD, offset: 0x329CD, size: 0x8, addend: 0x0, symName: __ZN5Eigen5BlockINS_6MatrixIdLin1ELin1ELi0ELin1ELin1EEELin1ELin1ELb1EEC2ERS2_llll, symObjAddr: 0x3D70, symBinAddr: 0x1000071E0, symSize: 0x154 }
  - { offsetInCU: 0x32A3D, offset: 0x32A3D, size: 0x8, addend: 0x0, symName: __ZN5Eigen9BlockImplINS_6MatrixIdLin1ELin1ELi0ELin1ELin1EEELin1ELin1ELb1ENS_5DenseEEC2ERS2_llll, symObjAddr: 0x3EC4, symBinAddr: 0x100007334, symSize: 0x54 }
  - { offsetInCU: 0x32AAD, offset: 0x32AAD, size: 0x8, addend: 0x0, symName: __ZN5Eigen8internal15BlockImpl_denseINS_6MatrixIdLin1ELin1ELi0ELin1ELin1EEELin1ELin1ELb1ELb1EEC2ERS3_llll, symObjAddr: 0x3F18, symBinAddr: 0x100007388, symSize: 0xC4 }
  - { offsetInCU: 0x32B22, offset: 0x32B22, size: 0x8, addend: 0x0, symName: __ZN5Eigen15PlainObjectBaseINS_6MatrixIdLin1ELin1ELi0ELin1ELin1EEEE4dataEv, symObjAddr: 0x3FDC, symBinAddr: 0x10000744C, symSize: 0x24 }
  - { offsetInCU: 0x32B48, offset: 0x32B48, size: 0x8, addend: 0x0, symName: __ZNK5Eigen6MatrixIdLin1ELin1ELi0ELin1ELin1EE11innerStrideEv, symObjAddr: 0x4000, symBinAddr: 0x100007470, symSize: 0x14 }
  - { offsetInCU: 0x32B6E, offset: 0x32B6E, size: 0x8, addend: 0x0, symName: __ZNK5Eigen6MatrixIdLin1ELin1ELi0ELin1ELin1EE11outerStrideEv, symObjAddr: 0x4014, symBinAddr: 0x100007484, symSize: 0x24 }
  - { offsetInCU: 0x32B94, offset: 0x32B94, size: 0x8, addend: 0x0, symName: __ZN5Eigen7MapBaseINS_5BlockINS_6MatrixIdLin1ELin1ELi0ELin1ELin1EEELin1ELin1ELb1EEELi1EEC2EPdll, symObjAddr: 0x4038, symBinAddr: 0x1000074A8, symSize: 0x44 }
  - { offsetInCU: 0x32BEB, offset: 0x32BEB, size: 0x8, addend: 0x0, symName: __ZN5Eigen8internal19variable_if_dynamicIlLin1EEC1El, symObjAddr: 0x407C, symBinAddr: 0x1000074EC, symSize: 0x34 }
  - { offsetInCU: 0x32C23, offset: 0x32C23, size: 0x8, addend: 0x0, symName: __ZN5Eigen8internal15BlockImpl_denseINS_6MatrixIdLin1ELin1ELi0ELin1ELin1EEELin1ELin1ELb1ELb1EE4initEv, symObjAddr: 0x40B0, symBinAddr: 0x100007520, symSize: 0x34 }
  - { offsetInCU: 0x32C49, offset: 0x32C49, size: 0x8, addend: 0x0, symName: __ZN5Eigen12DenseStorageIdLin1ELin1ELin1ELi0EE4dataEv, symObjAddr: 0x40E4, symBinAddr: 0x100007554, symSize: 0x18 }
  - { offsetInCU: 0x32C6F, offset: 0x32C6F, size: 0x8, addend: 0x0, symName: __ZNK5Eigen9DenseBaseINS_6MatrixIdLin1ELin1ELi0ELin1ELin1EEEE9innerSizeEv, symObjAddr: 0x40FC, symBinAddr: 0x10000756C, symSize: 0x24 }
  - { offsetInCU: 0x32C95, offset: 0x32C95, size: 0x8, addend: 0x0, symName: __ZN5Eigen7MapBaseINS_5BlockINS_6MatrixIdLin1ELin1ELi0ELin1ELin1EEELin1ELin1ELb1EEELi0EEC2EPdll, symObjAddr: 0x4120, symBinAddr: 0x100007590, symSize: 0x110 }
  - { offsetInCU: 0x32CE9, offset: 0x32CE9, size: 0x8, addend: 0x0, symName: __ZN5Eigen10MatrixBaseINS_5BlockINS_6MatrixIdLin1ELin1ELi0ELin1ELin1EEELin1ELin1ELb1EEEEC2Ev, symObjAddr: 0x4230, symBinAddr: 0x1000076A0, symSize: 0x2C }
  - { offsetInCU: 0x32D13, offset: 0x32D13, size: 0x8, addend: 0x0, symName: __ZNK5Eigen7MapBaseINS_5BlockINS_6MatrixIdLin1ELin1ELi0ELin1ELin1EEELin1ELin1ELb1EEELi0EE11checkSanityIS4_EEvNS_8internal9enable_ifIXeqsr8internal6traitsIT_EE9AlignmentLi0EEPvE4typeE, symObjAddr: 0x425C, symBinAddr: 0x1000076CC, symSize: 0x14 }
  - { offsetInCU: 0x32D4D, offset: 0x32D4D, size: 0x8, addend: 0x0, symName: __ZN5Eigen9DenseBaseINS_5BlockINS_6MatrixIdLin1ELin1ELi0ELin1ELin1EEELin1ELin1ELb1EEEEC2Ev, symObjAddr: 0x4270, symBinAddr: 0x1000076E0, symSize: 0x14 }
  - { offsetInCU: 0x32D77, offset: 0x32D77, size: 0x8, addend: 0x0, symName: __ZN5Eigen8internal19variable_if_dynamicIlLin1EEC2El, symObjAddr: 0x4284, symBinAddr: 0x1000076F4, symSize: 0x20 }
  - { offsetInCU: 0x32DAF, offset: 0x32DAF, size: 0x8, addend: 0x0, symName: __ZN5Eigen6MatrixIdLin1ELin1ELi0ELin1ELin1EEC2INS_5BlockIS1_Lin1ELin1ELb1EEEEERKNS_9EigenBaseIT_EE, symObjAddr: 0x42A4, symBinAddr: 0x100007714, symSize: 0x40 }
  - { offsetInCU: 0x32DF1, offset: 0x32DF1, size: 0x8, addend: 0x0, symName: __ZNK5Eigen9EigenBaseINS_5BlockINS_6MatrixIdLin1ELin1ELi0ELin1ELin1EEELin1ELin1ELb1EEEE7derivedEv, symObjAddr: 0x42E4, symBinAddr: 0x100007754, symSize: 0x14 }
  - { offsetInCU: 0x32E17, offset: 0x32E17, size: 0x8, addend: 0x0, symName: __ZN5Eigen15PlainObjectBaseINS_6MatrixIdLin1ELin1ELi0ELin1ELin1EEEEC2INS_5BlockIS2_Lin1ELin1ELb1EEEEERKNS_9DenseBaseIT_EE, symObjAddr: 0x42F8, symBinAddr: 0x100007768, symSize: 0x8C }
  - { offsetInCU: 0x32E59, offset: 0x32E59, size: 0x8, addend: 0x0, symName: __ZN5Eigen10MatrixBaseINS_6MatrixIdLin1ELin1ELi0ELin1ELin1EEEEC2Ev, symObjAddr: 0x4384, symBinAddr: 0x1000077F4, symSize: 0x2C }
  - { offsetInCU: 0x32E83, offset: 0x32E83, size: 0x8, addend: 0x0, symName: __ZN5Eigen12DenseStorageIdLin1ELin1ELin1ELi0EEC1Ev, symObjAddr: 0x43B0, symBinAddr: 0x100007820, symSize: 0x2C }
  - { offsetInCU: 0x32EAD, offset: 0x32EAD, size: 0x8, addend: 0x0, symName: __ZN5Eigen15PlainObjectBaseINS_6MatrixIdLin1ELin1ELi0ELin1ELin1EEEE22_check_template_paramsEv, symObjAddr: 0x43DC, symBinAddr: 0x10000784C, symSize: 0x4 }
  - { offsetInCU: 0x32F02, offset: 0x32F02, size: 0x8, addend: 0x0, symName: __ZN5Eigen15PlainObjectBaseINS_6MatrixIdLin1ELin1ELi0ELin1ELin1EEEE10resizeLikeINS_5BlockIS2_Lin1ELin1ELb1EEEEEvRKNS_9EigenBaseIT_EE, symObjAddr: 0x43E0, symBinAddr: 0x100007850, symSize: 0x11C }
  - { offsetInCU: 0x32F96, offset: 0x32F96, size: 0x8, addend: 0x0, symName: __ZN5Eigen15PlainObjectBaseINS_6MatrixIdLin1ELin1ELi0ELin1ELin1EEEE12_set_noaliasINS_5BlockIS2_Lin1ELin1ELb1EEEEERS2_RKNS_9DenseBaseIT_EE, symObjAddr: 0x44FC, symBinAddr: 0x10000796C, symSize: 0x60 }
  - { offsetInCU: 0x32FD4, offset: 0x32FD4, size: 0x8, addend: 0x0, symName: __ZN5Eigen9DenseBaseINS_6MatrixIdLin1ELin1ELi0ELin1ELin1EEEEC2Ev, symObjAddr: 0x455C, symBinAddr: 0x1000079CC, symSize: 0x14 }
  - { offsetInCU: 0x32FFE, offset: 0x32FFE, size: 0x8, addend: 0x0, symName: __ZN5Eigen12DenseStorageIdLin1ELin1ELin1ELi0EEC2Ev, symObjAddr: 0x4570, symBinAddr: 0x1000079E0, symSize: 0x20 }
  - { offsetInCU: 0x33028, offset: 0x33028, size: 0x8, addend: 0x0, symName: __ZNK5Eigen7MapBaseINS_5BlockINS_6MatrixIdLin1ELin1ELi0ELin1ELin1EEELin1ELin1ELb1EEELi0EE4rowsEv, symObjAddr: 0x4590, symBinAddr: 0x100007A00, symSize: 0x28 }
  - { offsetInCU: 0x3304E, offset: 0x3304E, size: 0x8, addend: 0x0, symName: __ZNK5Eigen7MapBaseINS_5BlockINS_6MatrixIdLin1ELin1ELi0ELin1ELin1EEELin1ELin1ELb1EEELi0EE4colsEv, symObjAddr: 0x45B8, symBinAddr: 0x100007A28, symSize: 0x28 }
  - { offsetInCU: 0x33074, offset: 0x33074, size: 0x8, addend: 0x0, symName: __ZN5Eigen15PlainObjectBaseINS_6MatrixIdLin1ELin1ELi0ELin1ELin1EEEE6resizeEll, symObjAddr: 0x45E0, symBinAddr: 0x100007A50, symSize: 0x14C }
  - { offsetInCU: 0x330F0, offset: 0x330F0, size: 0x8, addend: 0x0, symName: __ZNK5Eigen8internal19variable_if_dynamicIlLin1EE5valueEv, symObjAddr: 0x4760, symBinAddr: 0x100007BD0, symSize: 0x18 }
  - { offsetInCU: 0x33116, offset: 0x33116, size: 0x8, addend: 0x0, symName: __ZN5Eigen12DenseStorageIdLin1ELin1ELin1ELi0EE6resizeElll, symObjAddr: 0x4778, symBinAddr: 0x100007BE8, symSize: 0xB4 }
  - { offsetInCU: 0x33169, offset: 0x33169, size: 0x8, addend: 0x0, symName: __ZN5Eigen8internal9assign_opIddEC1Ev, symObjAddr: 0x49F0, symBinAddr: 0x100007E60, symSize: 0x2C }
  - { offsetInCU: 0x33193, offset: 0x33193, size: 0x8, addend: 0x0, symName: __ZN5Eigen8internal10AssignmentINS_6MatrixIdLin1ELin1ELi0ELin1ELin1EEENS_5BlockIS3_Lin1ELin1ELb1EEENS0_9assign_opIddEENS0_11Dense2DenseEvE3runERS3_RKS5_RKS7_, symObjAddr: 0x4A1C, symBinAddr: 0x100007E8C, symSize: 0x40 }
  - { offsetInCU: 0x331D5, offset: 0x331D5, size: 0x8, addend: 0x0, symName: __ZN5Eigen8internal27checkTransposeAliasing_implINS_6MatrixIdLin1ELin1ELi0ELin1ELin1EEENS_5BlockIS3_Lin1ELin1ELb1EEELb0EE3runERKS3_RKS5_, symObjAddr: 0x4BAC, symBinAddr: 0x10000801C, symSize: 0x14 }
  - { offsetInCU: 0x33200, offset: 0x33200, size: 0x8, addend: 0x0, symName: __ZN5Eigen8internal9evaluatorINS_5BlockINS_6MatrixIdLin1ELin1ELi0ELin1ELin1EEELin1ELin1ELb1EEEEC1ERKS5_, symObjAddr: 0x4BC0, symBinAddr: 0x100008030, symSize: 0x34 }
  - { offsetInCU: 0x33239, offset: 0x33239, size: 0x8, addend: 0x0, symName: __ZN5Eigen8internal9evaluatorINS_6MatrixIdLin1ELin1ELi0ELin1ELin1EEEEC1ERKS3_, symObjAddr: 0x4CEC, symBinAddr: 0x10000815C, symSize: 0x34 }
  - { offsetInCU: 0x33272, offset: 0x33272, size: 0x8, addend: 0x0, symName: __ZNK5Eigen9EigenBaseINS_6MatrixIdLin1ELin1ELi0ELin1ELin1EEEE18const_cast_derivedEv, symObjAddr: 0x4D20, symBinAddr: 0x100008190, symSize: 0x14 }
  - { offsetInCU: 0x33298, offset: 0x33298, size: 0x8, addend: 0x0, symName: __ZN5Eigen8internal31generic_dense_assignment_kernelINS0_9evaluatorINS_6MatrixIdLin1ELin1ELi0ELin1ELin1EEEEENS2_INS_5BlockIS4_Lin1ELin1ELb1EEEEENS0_9assign_opIddEELi0EEC1ERS5_RKS8_RKSA_RS4_, symObjAddr: 0x4D34, symBinAddr: 0x1000081A4, symSize: 0x4C }
  - { offsetInCU: 0x332FE, offset: 0x332FE, size: 0x8, addend: 0x0, symName: __ZN5Eigen8internal9evaluatorINS_6MatrixIdLin1ELin1ELi0ELin1ELin1EEEED1Ev, symObjAddr: 0x4E28, symBinAddr: 0x100008298, symSize: 0x2C }
  - { offsetInCU: 0x3332B, offset: 0x3332B, size: 0x8, addend: 0x0, symName: __ZN5Eigen8internal9evaluatorINS_5BlockINS_6MatrixIdLin1ELin1ELi0ELin1ELin1EEELin1ELin1ELb1EEEED1Ev, symObjAddr: 0x4E54, symBinAddr: 0x1000082C4, symSize: 0x2C }
  - { offsetInCU: 0x33358, offset: 0x33358, size: 0x8, addend: 0x0, symName: __ZN5Eigen8internal9evaluatorINS_5BlockINS_6MatrixIdLin1ELin1ELi0ELin1ELin1EEELin1ELin1ELb1EEEEC2ERKS5_, symObjAddr: 0x4E80, symBinAddr: 0x1000082F0, symSize: 0x34 }
  - { offsetInCU: 0x33391, offset: 0x33391, size: 0x8, addend: 0x0, symName: __ZN5Eigen8internal15block_evaluatorINS_6MatrixIdLin1ELin1ELi0ELin1ELin1EEELin1ELin1ELb1ELb1EEC2ERKNS_5BlockIS3_Lin1ELin1ELb1EEE, symObjAddr: 0x4EB4, symBinAddr: 0x100008324, symSize: 0xE4 }
  - { offsetInCU: 0x333CA, offset: 0x333CA, size: 0x8, addend: 0x0, symName: __ZN5Eigen8internal17mapbase_evaluatorINS_5BlockINS_6MatrixIdLin1ELin1ELi0ELin1ELin1EEELin1ELin1ELb1EEES4_EC2ERKS5_, symObjAddr: 0x4F98, symBinAddr: 0x100008408, symSize: 0xC8 }
  - { offsetInCU: 0x33403, offset: 0x33403, size: 0x8, addend: 0x0, symName: __ZNK5Eigen7MapBaseINS_5BlockINS_6MatrixIdLin1ELin1ELi0ELin1ELin1EEELin1ELin1ELb1EEELi1EE4dataEv, symObjAddr: 0x5060, symBinAddr: 0x1000084D0, symSize: 0x18 }
  - { offsetInCU: 0x33429, offset: 0x33429, size: 0x8, addend: 0x0, symName: __ZN5Eigen8internal17mapbase_evaluatorINS_5BlockINS_6MatrixIdLin1ELin1ELi0ELin1ELin1EEELin1ELin1ELb1EEES4_ED2Ev, symObjAddr: 0x5078, symBinAddr: 0x1000084E8, symSize: 0x2C }
  - { offsetInCU: 0x33456, offset: 0x33456, size: 0x8, addend: 0x0, symName: __ZN5Eigen8internal14evaluator_baseINS_5BlockINS_6MatrixIdLin1ELin1ELi0ELin1ELin1EEELin1ELin1ELb1EEEEC2Ev, symObjAddr: 0x50A4, symBinAddr: 0x100008514, symSize: 0x14 }
  - { offsetInCU: 0x33480, offset: 0x33480, size: 0x8, addend: 0x0, symName: __ZNK5Eigen8internal15BlockImpl_denseINS_6MatrixIdLin1ELin1ELi0ELin1ELin1EEELin1ELin1ELb1ELb1EE11innerStrideEv, symObjAddr: 0x50B8, symBinAddr: 0x100008528, symSize: 0x28 }
  - { offsetInCU: 0x334A6, offset: 0x334A6, size: 0x8, addend: 0x0, symName: __ZN5Eigen8internal19variable_if_dynamicIlLi1EEC1El, symObjAddr: 0x50E0, symBinAddr: 0x100008550, symSize: 0x34 }
  - { offsetInCU: 0x334DE, offset: 0x334DE, size: 0x8, addend: 0x0, symName: __ZNK5Eigen8internal15BlockImpl_denseINS_6MatrixIdLin1ELin1ELi0ELin1ELin1EEELin1ELin1ELb1ELb1EE11outerStrideEv, symObjAddr: 0x5114, symBinAddr: 0x100008584, symSize: 0x28 }
  - { offsetInCU: 0x33504, offset: 0x33504, size: 0x8, addend: 0x0, symName: __ZN5Eigen8internal14evaluator_baseINS_5BlockINS_6MatrixIdLin1ELin1ELi0ELin1ELin1EEELin1ELin1ELb1EEEED2Ev, symObjAddr: 0x513C, symBinAddr: 0x1000085AC, symSize: 0x14 }
  - { offsetInCU: 0x3352E, offset: 0x3352E, size: 0x8, addend: 0x0, symName: __ZN5Eigen8internal19variable_if_dynamicIlLi1EEC2El, symObjAddr: 0x5150, symBinAddr: 0x1000085C0, symSize: 0x64 }
  - { offsetInCU: 0x33566, offset: 0x33566, size: 0x8, addend: 0x0, symName: __ZN5Eigen8internal9evaluatorINS_6MatrixIdLin1ELin1ELi0ELin1ELin1EEEEC2ERKS3_, symObjAddr: 0x51B4, symBinAddr: 0x100008624, symSize: 0x34 }
  - { offsetInCU: 0x3359F, offset: 0x3359F, size: 0x8, addend: 0x0, symName: __ZN5Eigen8internal9evaluatorINS_15PlainObjectBaseINS_6MatrixIdLin1ELin1ELi0ELin1ELin1EEEEEEC2ERKS5_, symObjAddr: 0x51E8, symBinAddr: 0x100008658, symSize: 0x90 }
  - { offsetInCU: 0x335D7, offset: 0x335D7, size: 0x8, addend: 0x0, symName: __ZN5Eigen8internal14evaluator_baseINS_6MatrixIdLin1ELin1ELi0ELin1ELin1EEEEC2Ev, symObjAddr: 0x5278, symBinAddr: 0x1000086E8, symSize: 0x14 }
  - { offsetInCU: 0x33601, offset: 0x33601, size: 0x8, addend: 0x0, symName: __ZNK5Eigen15PlainObjectBaseINS_6MatrixIdLin1ELin1ELi0ELin1ELin1EEEE4dataEv, symObjAddr: 0x528C, symBinAddr: 0x1000086FC, symSize: 0x24 }
  - { offsetInCU: 0x33627, offset: 0x33627, size: 0x8, addend: 0x0, symName: __ZNK5Eigen15DenseCoeffsBaseINS_6MatrixIdLin1ELin1ELi0ELin1ELin1EEELi3EE11outerStrideEv, symObjAddr: 0x52B0, symBinAddr: 0x100008720, symSize: 0x28 }
  - { offsetInCU: 0x3364D, offset: 0x3364D, size: 0x8, addend: 0x0, symName: __ZN5Eigen8internal30plainobjectbase_evaluator_dataIdLin1EEC1EPKdl, symObjAddr: 0x52D8, symBinAddr: 0x100008748, symSize: 0x3C }
  - { offsetInCU: 0x33693, offset: 0x33693, size: 0x8, addend: 0x0, symName: __ZN5Eigen8internal14evaluator_baseINS_6MatrixIdLin1ELin1ELi0ELin1ELin1EEEED2Ev, symObjAddr: 0x5314, symBinAddr: 0x100008784, symSize: 0x14 }
  - { offsetInCU: 0x336BD, offset: 0x336BD, size: 0x8, addend: 0x0, symName: __ZNK5Eigen12DenseStorageIdLin1ELin1ELin1ELi0EE4dataEv, symObjAddr: 0x5328, symBinAddr: 0x100008798, symSize: 0x18 }
  - { offsetInCU: 0x336E3, offset: 0x336E3, size: 0x8, addend: 0x0, symName: __ZN5Eigen8internal30plainobjectbase_evaluator_dataIdLin1EEC2EPKdl, symObjAddr: 0x5340, symBinAddr: 0x1000087B0, symSize: 0x2C }
  - { offsetInCU: 0x33729, offset: 0x33729, size: 0x8, addend: 0x0, symName: __ZN5Eigen8internal31generic_dense_assignment_kernelINS0_9evaluatorINS_6MatrixIdLin1ELin1ELi0ELin1ELin1EEEEENS2_INS_5BlockIS4_Lin1ELin1ELb1EEEEENS0_9assign_opIddEELi0EEC2ERS5_RKS8_RKSA_RS4_, symObjAddr: 0x536C, symBinAddr: 0x1000087DC, symSize: 0x44 }
  - { offsetInCU: 0x3378F, offset: 0x3378F, size: 0x8, addend: 0x0, symName: __ZNK5Eigen8internal31generic_dense_assignment_kernelINS0_9evaluatorINS_6MatrixIdLin1ELin1ELi0ELin1ELin1EEEEENS2_INS_5BlockIS4_Lin1ELin1ELb1EEEEENS0_9assign_opIddEELi0EE4sizeEv, symObjAddr: 0x53B0, symBinAddr: 0x100008820, symSize: 0x28 }
  - { offsetInCU: 0x337B5, offset: 0x337B5, size: 0x8, addend: 0x0, symName: __ZN5Eigen8internal31unaligned_dense_assignment_loopILb1EE3runINS0_31generic_dense_assignment_kernelINS0_9evaluatorINS_6MatrixIdLin1ELin1ELi0ELin1ELin1EEEEENS5_INS_5BlockIS7_Lin1ELin1ELb1EEEEENS0_9assign_opIddEELi0EEEEEvRT_ll, symObjAddr: 0x53D8, symBinAddr: 0x100008848, symSize: 0x18 }
  - { offsetInCU: 0x33801, offset: 0x33801, size: 0x8, addend: 0x0, symName: __ZN5Eigen8internal31generic_dense_assignment_kernelINS0_9evaluatorINS_6MatrixIdLin1ELin1ELi0ELin1ELin1EEEEENS2_INS_5BlockIS4_Lin1ELin1ELb1EEEEENS0_9assign_opIddEELi0EE12assignPacketILi16ELi0E19__simd128_float64_tEEvl, symObjAddr: 0x53F0, symBinAddr: 0x100008860, symSize: 0x64 }
  - { offsetInCU: 0x33853, offset: 0x33853, size: 0x8, addend: 0x0, symName: __ZN5Eigen8internal31unaligned_dense_assignment_loopILb0EE3runINS0_31generic_dense_assignment_kernelINS0_9evaluatorINS_6MatrixIdLin1ELin1ELi0ELin1ELin1EEEEENS5_INS_5BlockIS7_Lin1ELin1ELb1EEEEENS0_9assign_opIddEELi0EEEEEvRT_ll, symObjAddr: 0x5454, symBinAddr: 0x1000088C4, symSize: 0x68 }
  - { offsetInCU: 0x338BB, offset: 0x338BB, size: 0x8, addend: 0x0, symName: __ZNK5Eigen9EigenBaseINS_6MatrixIdLin1ELin1ELi0ELin1ELin1EEEE4sizeEv, symObjAddr: 0x54BC, symBinAddr: 0x10000892C, symSize: 0x44 }
  - { offsetInCU: 0x338EB, offset: 0x338EB, size: 0x8, addend: 0x0, symName: __ZNK5Eigen8internal9assign_opIddE12assignPacketILi16E19__simd128_float64_tEEvPdRKT0_, symObjAddr: 0x5500, symBinAddr: 0x100008970, symSize: 0x40 }
  - { offsetInCU: 0x33966, offset: 0x33966, size: 0x8, addend: 0x0, symName: __ZN5Eigen8internal9evaluatorINS_15PlainObjectBaseINS_6MatrixIdLin1ELin1ELi0ELin1ELin1EEEEEE8coeffRefEl, symObjAddr: 0x5540, symBinAddr: 0x1000089B0, symSize: 0x24 }
  - { offsetInCU: 0x339A4, offset: 0x339A4, size: 0x8, addend: 0x0, symName: __ZNK5Eigen8internal17mapbase_evaluatorINS_5BlockINS_6MatrixIdLin1ELin1ELi0ELin1ELin1EEELin1ELin1ELb1EEES4_E6packetILi0E19__simd128_float64_tEET0_l, symObjAddr: 0x5564, symBinAddr: 0x1000089D4, symSize: 0x54 }
  - { offsetInCU: 0x33A0A, offset: 0x33A0A, size: 0x8, addend: 0x0, symName: __ZN5Eigen8internal19variable_if_dynamicIlLi1EE5valueEv, symObjAddr: 0x55E4, symBinAddr: 0x100008A54, symSize: 0x8 }
  - { offsetInCU: 0x33A1E, offset: 0x33A1E, size: 0x8, addend: 0x0, symName: __ZN5Eigen8internal31generic_dense_assignment_kernelINS0_9evaluatorINS_6MatrixIdLin1ELin1ELi0ELin1ELin1EEEEENS2_INS_5BlockIS4_Lin1ELin1ELb1EEEEENS0_9assign_opIddEELi0EE11assignCoeffEl, symObjAddr: 0x5614, symBinAddr: 0x100008A84, symSize: 0x60 }
  - { offsetInCU: 0x33A53, offset: 0x33A53, size: 0x8, addend: 0x0, symName: __ZNK5Eigen8internal9assign_opIddE11assignCoeffERdRKd, symObjAddr: 0x5674, symBinAddr: 0x100008AE4, symSize: 0x28 }
  - { offsetInCU: 0x33A95, offset: 0x33A95, size: 0x8, addend: 0x0, symName: __ZNK5Eigen8internal17mapbase_evaluatorINS_5BlockINS_6MatrixIdLin1ELin1ELi0ELin1ELin1EEELin1ELin1ELb1EEES4_E5coeffEl, symObjAddr: 0x569C, symBinAddr: 0x100008B0C, symSize: 0x48 }
  - { offsetInCU: 0x33ACA, offset: 0x33ACA, size: 0x8, addend: 0x0, symName: __ZN5Eigen8internal9evaluatorINS_6MatrixIdLin1ELin1ELi0ELin1ELin1EEEED2Ev, symObjAddr: 0x56E4, symBinAddr: 0x100008B54, symSize: 0x2C }
  - { offsetInCU: 0x33AF7, offset: 0x33AF7, size: 0x8, addend: 0x0, symName: __ZN5Eigen8internal9evaluatorINS_15PlainObjectBaseINS_6MatrixIdLin1ELin1ELi0ELin1ELin1EEEEEED2Ev, symObjAddr: 0x5710, symBinAddr: 0x100008B80, symSize: 0x2C }
  - { offsetInCU: 0x33B23, offset: 0x33B23, size: 0x8, addend: 0x0, symName: __ZN5Eigen8internal9evaluatorINS_5BlockINS_6MatrixIdLin1ELin1ELi0ELin1ELin1EEELin1ELin1ELb1EEEED2Ev, symObjAddr: 0x573C, symBinAddr: 0x100008BAC, symSize: 0x2C }
  - { offsetInCU: 0x33B50, offset: 0x33B50, size: 0x8, addend: 0x0, symName: __ZN5Eigen8internal15block_evaluatorINS_6MatrixIdLin1ELin1ELi0ELin1ELin1EEELin1ELin1ELb1ELb1EED2Ev, symObjAddr: 0x5768, symBinAddr: 0x100008BD8, symSize: 0x2C }
  - { offsetInCU: 0x33B7D, offset: 0x33B7D, size: 0x8, addend: 0x0, symName: __ZN5Eigen8internal9assign_opIddEC2Ev, symObjAddr: 0x5794, symBinAddr: 0x100008C04, symSize: 0x14 }
  - { offsetInCU: 0x33BA7, offset: 0x33BA7, size: 0x8, addend: 0x0, symName: __ZNK5Eigen12DenseStorageIdLin1ELin1ELin1ELi0EE4rowsEv, symObjAddr: 0x57A8, symBinAddr: 0x100008C18, symSize: 0x18 }
  - { offsetInCU: 0x33BDC, offset: 0x33BDC, size: 0x8, addend: 0x0, symName: __ZN5Eigen8internal29conservative_resize_like_implINS_6MatrixIdLin1ELin1ELi0ELin1ELin1EEES3_Lb0EE3runERNS_9DenseBaseIS3_EEll, symObjAddr: 0x57C0, symBinAddr: 0x100008C30, symSize: 0x288 }
  - { offsetInCU: 0x33CDD, offset: 0x33CDD, size: 0x8, addend: 0x0, symName: __ZN5Eigen12DenseStorageIdLin1ELin1ELin1ELi0EE18conservativeResizeElll, symObjAddr: 0x5A48, symBinAddr: 0x100008EB8, symSize: 0x60 }
  - { offsetInCU: 0x33D30, offset: 0x33D30, size: 0x8, addend: 0x0, symName: __ZN5Eigen6MatrixIdLin1ELin1ELi0ELin1ELin1EEC1IllEERKT_RKT0_, symObjAddr: 0x5AA8, symBinAddr: 0x100008F18, symSize: 0x3C }
  - { offsetInCU: 0x33D8A, offset: 0x33D8A, size: 0x8, addend: 0x0, symName: __ZN5Eigen9DenseBaseINS_6MatrixIdLin1ELin1ELi0ELin1ELin1EEEE5blockIllEENS3_13FixedBlockXprIXsr8internal15get_fixed_valueIT_EE5valueEXsr8internal15get_fixed_valueIT0_EE5valueEE4TypeEllS6_S7_, symObjAddr: 0x5AE4, symBinAddr: 0x100008F54, symSize: 0x94 }
  - { offsetInCU: 0x33DFA, offset: 0x33DFA, size: 0x8, addend: 0x0, symName: __ZN5Eigen5BlockINS_6MatrixIdLin1ELin1ELi0ELin1ELin1EEELin1ELin1ELb0EEaSERKS3_, symObjAddr: 0x5B78, symBinAddr: 0x100008FE8, symSize: 0x34 }
  - { offsetInCU: 0x33E2E, offset: 0x33E2E, size: 0x8, addend: 0x0, symName: __ZN5Eigen15PlainObjectBaseINS_6MatrixIdLin1ELin1ELi0ELin1ELin1EEEE4swapIS2_EEvRNS_9DenseBaseIT_EE, symObjAddr: 0x5BAC, symBinAddr: 0x10000901C, symSize: 0x40 }
  - { offsetInCU: 0x33E6C, offset: 0x33E6C, size: 0x8, addend: 0x0, symName: __ZN5Eigen6MatrixIdLin1ELin1ELi0ELin1ELin1EEC2IllEERKT_RKT0_, symObjAddr: 0x5D38, symBinAddr: 0x1000091A8, symSize: 0x84 }
  - { offsetInCU: 0x33EC6, offset: 0x33EC6, size: 0x8, addend: 0x0, symName: __ZN5Eigen15PlainObjectBaseINS_6MatrixIdLin1ELin1ELi0ELin1ELin1EEEEC2Ev, symObjAddr: 0x5DBC, symBinAddr: 0x10000922C, symSize: 0x34 }
  - { offsetInCU: 0x33EF5, offset: 0x33EF5, size: 0x8, addend: 0x0, symName: __ZN5Eigen15PlainObjectBaseINS_6MatrixIdLin1ELin1ELi0ELin1ELin1EEEE6_init2IllEEvllPNS_8internal9enable_ifILb1ET_E4typeE, symObjAddr: 0x5DF0, symBinAddr: 0x100009260, symSize: 0x44 }
  - { offsetInCU: 0x33F7E, offset: 0x33F7E, size: 0x8, addend: 0x0, symName: __ZNKSt3__16__lessIllEclB7v160006ERKlS3_, symObjAddr: 0x5EB4, symBinAddr: 0x100009324, symSize: 0x34 }
  - { offsetInCU: 0x33FC0, offset: 0x33FC0, size: 0x8, addend: 0x0, symName: __ZN5Eigen5BlockINS_6MatrixIdLin1ELin1ELi0ELin1ELin1EEELin1ELin1ELb0EEC1ERS2_llll, symObjAddr: 0x5EE8, symBinAddr: 0x100009358, symSize: 0x54 }
  - { offsetInCU: 0x34030, offset: 0x34030, size: 0x8, addend: 0x0, symName: __ZN5Eigen5BlockINS_6MatrixIdLin1ELin1ELi0ELin1ELin1EEELin1ELin1ELb0EEC2ERS2_llll, symObjAddr: 0x5F3C, symBinAddr: 0x1000093AC, symSize: 0x154 }
  - { offsetInCU: 0x340A0, offset: 0x340A0, size: 0x8, addend: 0x0, symName: __ZN5Eigen9BlockImplINS_6MatrixIdLin1ELin1ELi0ELin1ELin1EEELin1ELin1ELb0ENS_5DenseEEC2ERS2_llll, symObjAddr: 0x6090, symBinAddr: 0x100009500, symSize: 0x54 }
  - { offsetInCU: 0x34110, offset: 0x34110, size: 0x8, addend: 0x0, symName: __ZN5Eigen8internal15BlockImpl_denseINS_6MatrixIdLin1ELin1ELi0ELin1ELin1EEELin1ELin1ELb0ELb1EEC2ERS3_llll, symObjAddr: 0x60E4, symBinAddr: 0x100009554, symSize: 0xC4 }
  - { offsetInCU: 0x34185, offset: 0x34185, size: 0x8, addend: 0x0, symName: __ZN5Eigen7MapBaseINS_5BlockINS_6MatrixIdLin1ELin1ELi0ELin1ELin1EEELin1ELin1ELb0EEELi1EEC2EPdll, symObjAddr: 0x61A8, symBinAddr: 0x100009618, symSize: 0x44 }
  - { offsetInCU: 0x341DC, offset: 0x341DC, size: 0x8, addend: 0x0, symName: __ZN5Eigen8internal15BlockImpl_denseINS_6MatrixIdLin1ELin1ELi0ELin1ELin1EEELin1ELin1ELb0ELb1EE4initEv, symObjAddr: 0x61EC, symBinAddr: 0x10000965C, symSize: 0x34 }
  - { offsetInCU: 0x34202, offset: 0x34202, size: 0x8, addend: 0x0, symName: __ZN5Eigen7MapBaseINS_5BlockINS_6MatrixIdLin1ELin1ELi0ELin1ELin1EEELin1ELin1ELb0EEELi0EEC2EPdll, symObjAddr: 0x6220, symBinAddr: 0x100009690, symSize: 0x110 }
  - { offsetInCU: 0x34256, offset: 0x34256, size: 0x8, addend: 0x0, symName: __ZN5Eigen10MatrixBaseINS_5BlockINS_6MatrixIdLin1ELin1ELi0ELin1ELin1EEELin1ELin1ELb0EEEEC2Ev, symObjAddr: 0x6330, symBinAddr: 0x1000097A0, symSize: 0x2C }
  - { offsetInCU: 0x34280, offset: 0x34280, size: 0x8, addend: 0x0, symName: __ZNK5Eigen7MapBaseINS_5BlockINS_6MatrixIdLin1ELin1ELi0ELin1ELin1EEELin1ELin1ELb0EEELi0EE11checkSanityIS4_EEvNS_8internal9enable_ifIXeqsr8internal6traitsIT_EE9AlignmentLi0EEPvE4typeE, symObjAddr: 0x635C, symBinAddr: 0x1000097CC, symSize: 0x14 }
  - { offsetInCU: 0x342BA, offset: 0x342BA, size: 0x8, addend: 0x0, symName: __ZN5Eigen9DenseBaseINS_5BlockINS_6MatrixIdLin1ELin1ELi0ELin1ELin1EEELin1ELin1ELb0EEEEC2Ev, symObjAddr: 0x6370, symBinAddr: 0x1000097E0, symSize: 0x14 }
  - { offsetInCU: 0x342E4, offset: 0x342E4, size: 0x8, addend: 0x0, symName: __ZN5Eigen9BlockImplINS_6MatrixIdLin1ELin1ELi0ELin1ELin1EEELin1ELin1ELb0ENS_5DenseEEaSERKS4_, symObjAddr: 0x6384, symBinAddr: 0x1000097F4, symSize: 0x34 }
  - { offsetInCU: 0x34318, offset: 0x34318, size: 0x8, addend: 0x0, symName: __ZN5Eigen8internal15BlockImpl_denseINS_6MatrixIdLin1ELin1ELi0ELin1ELin1EEELin1ELin1ELb0ELb1EEaSERKS4_, symObjAddr: 0x63B8, symBinAddr: 0x100009828, symSize: 0x34 }
  - { offsetInCU: 0x3434D, offset: 0x3434D, size: 0x8, addend: 0x0, symName: __ZN5Eigen7MapBaseINS_5BlockINS_6MatrixIdLin1ELin1ELi0ELin1ELin1EEELin1ELin1ELb0EEELi1EEaSERKS5_, symObjAddr: 0x63EC, symBinAddr: 0x10000985C, symSize: 0x38 }
  - { offsetInCU: 0x34382, offset: 0x34382, size: 0x8, addend: 0x0, symName: __ZN5Eigen10MatrixBaseINS_5BlockINS_6MatrixIdLin1ELin1ELi0ELin1ELin1EEELin1ELin1ELb0EEEEaSERKS5_, symObjAddr: 0x6424, symBinAddr: 0x100009894, symSize: 0x4C }
  - { offsetInCU: 0x343B8, offset: 0x343B8, size: 0x8, addend: 0x0, symName: __ZN5Eigen9EigenBaseINS_5BlockINS_6MatrixIdLin1ELin1ELi0ELin1ELin1EEELin1ELin1ELb0EEEE7derivedEv, symObjAddr: 0x6470, symBinAddr: 0x1000098E0, symSize: 0x14 }
  - { offsetInCU: 0x343DE, offset: 0x343DE, size: 0x8, addend: 0x0, symName: __ZNK5Eigen9EigenBaseINS_5BlockINS_6MatrixIdLin1ELin1ELi0ELin1ELin1EEELin1ELin1ELb0EEEE7derivedEv, symObjAddr: 0x64D4, symBinAddr: 0x100009944, symSize: 0x14 }
  - { offsetInCU: 0x34404, offset: 0x34404, size: 0x8, addend: 0x0, symName: __ZN5Eigen8internal10AssignmentINS_5BlockINS_6MatrixIdLin1ELin1ELi0ELin1ELin1EEELin1ELin1ELb0EEES5_NS0_9assign_opIddEENS0_11Dense2DenseEvE3runERS5_RKS5_RKS7_, symObjAddr: 0x655C, symBinAddr: 0x1000099CC, symSize: 0x40 }
  - { offsetInCU: 0x34446, offset: 0x34446, size: 0x8, addend: 0x0, symName: __ZNK5Eigen7MapBaseINS_5BlockINS_6MatrixIdLin1ELin1ELi0ELin1ELin1EEELin1ELin1ELb0EEELi0EE4rowsEv, symObjAddr: 0x66EC, symBinAddr: 0x100009B5C, symSize: 0x28 }
  - { offsetInCU: 0x3446C, offset: 0x3446C, size: 0x8, addend: 0x0, symName: __ZNK5Eigen7MapBaseINS_5BlockINS_6MatrixIdLin1ELin1ELi0ELin1ELin1EEELin1ELin1ELb0EEELi0EE4colsEv, symObjAddr: 0x6714, symBinAddr: 0x100009B84, symSize: 0x28 }
  - { offsetInCU: 0x34492, offset: 0x34492, size: 0x8, addend: 0x0, symName: __ZN5Eigen8internal27checkTransposeAliasing_implINS_5BlockINS_6MatrixIdLin1ELin1ELi0ELin1ELin1EEELin1ELin1ELb0EEES5_Lb0EE3runERKS5_S8_, symObjAddr: 0x673C, symBinAddr: 0x100009BAC, symSize: 0x14 }
  - { offsetInCU: 0x344BD, offset: 0x344BD, size: 0x8, addend: 0x0, symName: __ZN5Eigen8internal9evaluatorINS_5BlockINS_6MatrixIdLin1ELin1ELi0ELin1ELin1EEELin1ELin1ELb0EEEEC1ERKS5_, symObjAddr: 0x6750, symBinAddr: 0x100009BC0, symSize: 0x34 }
  - { offsetInCU: 0x344F6, offset: 0x344F6, size: 0x8, addend: 0x0, symName: __ZNK5Eigen9EigenBaseINS_5BlockINS_6MatrixIdLin1ELin1ELi0ELin1ELin1EEELin1ELin1ELb0EEEE18const_cast_derivedEv, symObjAddr: 0x687C, symBinAddr: 0x100009CEC, symSize: 0x14 }
  - { offsetInCU: 0x3451C, offset: 0x3451C, size: 0x8, addend: 0x0, symName: __ZN5Eigen8internal31generic_dense_assignment_kernelINS0_9evaluatorINS_5BlockINS_6MatrixIdLin1ELin1ELi0ELin1ELin1EEELin1ELin1ELb0EEEEES7_NS0_9assign_opIddEELi0EEC1ERS7_RKS7_RKS9_RS6_, symObjAddr: 0x6890, symBinAddr: 0x100009D00, symSize: 0x4C }
  - { offsetInCU: 0x34582, offset: 0x34582, size: 0x8, addend: 0x0, symName: __ZN5Eigen8internal9evaluatorINS_5BlockINS_6MatrixIdLin1ELin1ELi0ELin1ELin1EEELin1ELin1ELb0EEEED1Ev, symObjAddr: 0x6AF0, symBinAddr: 0x100009F60, symSize: 0x2C }
  - { offsetInCU: 0x345AF, offset: 0x345AF, size: 0x8, addend: 0x0, symName: __ZN5Eigen8internal9evaluatorINS_5BlockINS_6MatrixIdLin1ELin1ELi0ELin1ELin1EEELin1ELin1ELb0EEEEC2ERKS5_, symObjAddr: 0x6B1C, symBinAddr: 0x100009F8C, symSize: 0x34 }
  - { offsetInCU: 0x345E8, offset: 0x345E8, size: 0x8, addend: 0x0, symName: __ZN5Eigen8internal15block_evaluatorINS_6MatrixIdLin1ELin1ELi0ELin1ELin1EEELin1ELin1ELb0ELb1EEC2ERKNS_5BlockIS3_Lin1ELin1ELb0EEE, symObjAddr: 0x6B50, symBinAddr: 0x100009FC0, symSize: 0xE4 }
  - { offsetInCU: 0x34621, offset: 0x34621, size: 0x8, addend: 0x0, symName: __ZN5Eigen8internal17mapbase_evaluatorINS_5BlockINS_6MatrixIdLin1ELin1ELi0ELin1ELin1EEELin1ELin1ELb0EEES4_EC2ERKS5_, symObjAddr: 0x6C34, symBinAddr: 0x10000A0A4, symSize: 0xC8 }
  - { offsetInCU: 0x3465A, offset: 0x3465A, size: 0x8, addend: 0x0, symName: __ZNK5Eigen7MapBaseINS_5BlockINS_6MatrixIdLin1ELin1ELi0ELin1ELin1EEELin1ELin1ELb0EEELi1EE4dataEv, symObjAddr: 0x6CFC, symBinAddr: 0x10000A16C, symSize: 0x18 }
  - { offsetInCU: 0x34680, offset: 0x34680, size: 0x8, addend: 0x0, symName: __ZN5Eigen8internal17mapbase_evaluatorINS_5BlockINS_6MatrixIdLin1ELin1ELi0ELin1ELin1EEELin1ELin1ELb0EEES4_ED2Ev, symObjAddr: 0x6D14, symBinAddr: 0x10000A184, symSize: 0x2C }
  - { offsetInCU: 0x346AD, offset: 0x346AD, size: 0x8, addend: 0x0, symName: __ZN5Eigen8internal14evaluator_baseINS_5BlockINS_6MatrixIdLin1ELin1ELi0ELin1ELin1EEELin1ELin1ELb0EEEEC2Ev, symObjAddr: 0x6D40, symBinAddr: 0x10000A1B0, symSize: 0x14 }
  - { offsetInCU: 0x346D7, offset: 0x346D7, size: 0x8, addend: 0x0, symName: __ZNK5Eigen8internal15BlockImpl_denseINS_6MatrixIdLin1ELin1ELi0ELin1ELin1EEELin1ELin1ELb0ELb1EE11innerStrideEv, symObjAddr: 0x6D54, symBinAddr: 0x10000A1C4, symSize: 0x28 }
  - { offsetInCU: 0x346FD, offset: 0x346FD, size: 0x8, addend: 0x0, symName: __ZNK5Eigen8internal15BlockImpl_denseINS_6MatrixIdLin1ELin1ELi0ELin1ELin1EEELin1ELin1ELb0ELb1EE11outerStrideEv, symObjAddr: 0x6D7C, symBinAddr: 0x10000A1EC, symSize: 0x28 }
  - { offsetInCU: 0x34723, offset: 0x34723, size: 0x8, addend: 0x0, symName: __ZN5Eigen8internal14evaluator_baseINS_5BlockINS_6MatrixIdLin1ELin1ELi0ELin1ELin1EEELin1ELin1ELb0EEEED2Ev, symObjAddr: 0x6DA4, symBinAddr: 0x10000A214, symSize: 0x14 }
  - { offsetInCU: 0x3474D, offset: 0x3474D, size: 0x8, addend: 0x0, symName: __ZN5Eigen9DenseBaseINS_5BlockINS_6MatrixIdLin1ELin1ELi0ELin1ELin1EEELin1ELin1ELb0EEEE6resizeEll, symObjAddr: 0x6DB8, symBinAddr: 0x10000A228, symSize: 0xBC }
  - { offsetInCU: 0x34791, offset: 0x34791, size: 0x8, addend: 0x0, symName: __ZNK5Eigen9EigenBaseINS_5BlockINS_6MatrixIdLin1ELin1ELi0ELin1ELin1EEELin1ELin1ELb0EEEE4rowsEv, symObjAddr: 0x6E74, symBinAddr: 0x10000A2E4, symSize: 0x28 }
  - { offsetInCU: 0x347B7, offset: 0x347B7, size: 0x8, addend: 0x0, symName: __ZNK5Eigen9EigenBaseINS_5BlockINS_6MatrixIdLin1ELin1ELi0ELin1ELin1EEELin1ELin1ELb0EEEE4colsEv, symObjAddr: 0x6E9C, symBinAddr: 0x10000A30C, symSize: 0x28 }
  - { offsetInCU: 0x347DD, offset: 0x347DD, size: 0x8, addend: 0x0, symName: __ZN5Eigen8internal31generic_dense_assignment_kernelINS0_9evaluatorINS_5BlockINS_6MatrixIdLin1ELin1ELi0ELin1ELin1EEELin1ELin1ELb0EEEEES7_NS0_9assign_opIddEELi0EEC2ERS7_RKS7_RKS9_RS6_, symObjAddr: 0x6EC4, symBinAddr: 0x10000A334, symSize: 0x44 }
  - { offsetInCU: 0x34843, offset: 0x34843, size: 0x8, addend: 0x0, symName: __ZNK5Eigen8internal31generic_dense_assignment_kernelINS0_9evaluatorINS_5BlockINS_6MatrixIdLin1ELin1ELi0ELin1ELin1EEELin1ELin1ELb0EEEEES7_NS0_9assign_opIddEELi0EE10dstDataPtrEv, symObjAddr: 0x6F08, symBinAddr: 0x10000A378, symSize: 0x28 }
  - { offsetInCU: 0x34869, offset: 0x34869, size: 0x8, addend: 0x0, symName: __ZN5Eigen8internal21dense_assignment_loopINS0_31generic_dense_assignment_kernelINS0_9evaluatorINS_5BlockINS_6MatrixIdLin1ELin1ELi0ELin1ELin1EEELin1ELin1ELb0EEEEES8_NS0_9assign_opIddEELi0EEELi0ELi0EE3runERSB_, symObjAddr: 0x6F30, symBinAddr: 0x10000A3A0, symSize: 0xAC }
  - { offsetInCU: 0x348C7, offset: 0x348C7, size: 0x8, addend: 0x0, symName: __ZNK5Eigen8internal31generic_dense_assignment_kernelINS0_9evaluatorINS_5BlockINS_6MatrixIdLin1ELin1ELi0ELin1ELin1EEELin1ELin1ELb0EEEEES7_NS0_9assign_opIddEELi0EE9innerSizeEv, symObjAddr: 0x6FDC, symBinAddr: 0x10000A44C, symSize: 0x28 }
  - { offsetInCU: 0x348ED, offset: 0x348ED, size: 0x8, addend: 0x0, symName: __ZNK5Eigen8internal31generic_dense_assignment_kernelINS0_9evaluatorINS_5BlockINS_6MatrixIdLin1ELin1ELi0ELin1ELin1EEELin1ELin1ELb0EEEEES7_NS0_9assign_opIddEELi0EE9outerSizeEv, symObjAddr: 0x7004, symBinAddr: 0x10000A474, symSize: 0x28 }
  - { offsetInCU: 0x34913, offset: 0x34913, size: 0x8, addend: 0x0, symName: __ZNK5Eigen8internal31generic_dense_assignment_kernelINS0_9evaluatorINS_5BlockINS_6MatrixIdLin1ELin1ELi0ELin1ELin1EEELin1ELin1ELb0EEEEES7_NS0_9assign_opIddEELi0EE11outerStrideEv, symObjAddr: 0x702C, symBinAddr: 0x10000A49C, symSize: 0x28 }
  - { offsetInCU: 0x34939, offset: 0x34939, size: 0x8, addend: 0x0, symName: __ZN5Eigen8internal31generic_dense_assignment_kernelINS0_9evaluatorINS_5BlockINS_6MatrixIdLin1ELin1ELi0ELin1ELin1EEELin1ELin1ELb0EEEEES7_NS0_9assign_opIddEELi0EE23assignCoeffByOuterInnerEll, symObjAddr: 0x7100, symBinAddr: 0x10000A570, symSize: 0x60 }
  - { offsetInCU: 0x3499B, offset: 0x3499B, size: 0x8, addend: 0x0, symName: __ZN5Eigen8internal31generic_dense_assignment_kernelINS0_9evaluatorINS_5BlockINS_6MatrixIdLin1ELin1ELi0ELin1ELin1EEELin1ELin1ELb0EEEEES7_NS0_9assign_opIddEELi0EE24assignPacketByOuterInnerILi16ELi0E19__simd128_float64_tEEvll, symObjAddr: 0x7160, symBinAddr: 0x10000A5D0, symSize: 0x60 }
  - { offsetInCU: 0x34A1A, offset: 0x34A1A, size: 0x8, addend: 0x0, symName: __ZN5Eigen7MapBaseINS_5BlockINS_6MatrixIdLin1ELin1ELi0ELin1ELin1EEELin1ELin1ELb0EEELi1EE4dataEv, symObjAddr: 0x71C0, symBinAddr: 0x10000A630, symSize: 0x18 }
  - { offsetInCU: 0x34A40, offset: 0x34A40, size: 0x8, addend: 0x0, symName: __ZNK5Eigen9DenseBaseINS_5BlockINS_6MatrixIdLin1ELin1ELi0ELin1ELin1EEELin1ELin1ELb0EEEE9innerSizeEv, symObjAddr: 0x71D8, symBinAddr: 0x10000A648, symSize: 0x24 }
  - { offsetInCU: 0x34A66, offset: 0x34A66, size: 0x8, addend: 0x0, symName: __ZNK5Eigen9DenseBaseINS_5BlockINS_6MatrixIdLin1ELin1ELi0ELin1ELin1EEELin1ELin1ELb0EEEE9outerSizeEv, symObjAddr: 0x71FC, symBinAddr: 0x10000A66C, symSize: 0x24 }
  - { offsetInCU: 0x34A8C, offset: 0x34A8C, size: 0x8, addend: 0x0, symName: __ZN5Eigen8internal31generic_dense_assignment_kernelINS0_9evaluatorINS_5BlockINS_6MatrixIdLin1ELin1ELi0ELin1ELin1EEELin1ELin1ELb0EEEEES7_NS0_9assign_opIddEELi0EE20rowIndexByOuterInnerEll, symObjAddr: 0x7220, symBinAddr: 0x10000A690, symSize: 0x18 }
  - { offsetInCU: 0x34ABF, offset: 0x34ABF, size: 0x8, addend: 0x0, symName: __ZN5Eigen8internal31generic_dense_assignment_kernelINS0_9evaluatorINS_5BlockINS_6MatrixIdLin1ELin1ELi0ELin1ELin1EEELin1ELin1ELb0EEEEES7_NS0_9assign_opIddEELi0EE20colIndexByOuterInnerEll, symObjAddr: 0x7238, symBinAddr: 0x10000A6A8, symSize: 0x18 }
  - { offsetInCU: 0x34AF2, offset: 0x34AF2, size: 0x8, addend: 0x0, symName: __ZN5Eigen8internal31generic_dense_assignment_kernelINS0_9evaluatorINS_5BlockINS_6MatrixIdLin1ELin1ELi0ELin1ELin1EEELin1ELin1ELb0EEEEES7_NS0_9assign_opIddEELi0EE11assignCoeffEll, symObjAddr: 0x7250, symBinAddr: 0x10000A6C0, symSize: 0x6C }
  - { offsetInCU: 0x34B36, offset: 0x34B36, size: 0x8, addend: 0x0, symName: __ZN5Eigen8internal17mapbase_evaluatorINS_5BlockINS_6MatrixIdLin1ELin1ELi0ELin1ELin1EEELin1ELin1ELb0EEES4_E8coeffRefEll, symObjAddr: 0x72BC, symBinAddr: 0x10000A72C, symSize: 0x78 }
  - { offsetInCU: 0x34B7A, offset: 0x34B7A, size: 0x8, addend: 0x0, symName: __ZNK5Eigen8internal17mapbase_evaluatorINS_5BlockINS_6MatrixIdLin1ELin1ELi0ELin1ELin1EEELin1ELin1ELb0EEES4_E5coeffEll, symObjAddr: 0x7334, symBinAddr: 0x10000A7A4, symSize: 0x78 }
  - { offsetInCU: 0x34BBE, offset: 0x34BBE, size: 0x8, addend: 0x0, symName: __ZNK5Eigen8internal17mapbase_evaluatorINS_5BlockINS_6MatrixIdLin1ELin1ELi0ELin1ELin1EEELin1ELin1ELb0EEES4_E9colStrideEv, symObjAddr: 0x73AC, symBinAddr: 0x10000A81C, symSize: 0x28 }
  - { offsetInCU: 0x34BE4, offset: 0x34BE4, size: 0x8, addend: 0x0, symName: __ZNK5Eigen8internal17mapbase_evaluatorINS_5BlockINS_6MatrixIdLin1ELin1ELi0ELin1ELin1EEELin1ELin1ELb0EEES4_E9rowStrideEv, symObjAddr: 0x73D4, symBinAddr: 0x10000A844, symSize: 0x20 }
  - { offsetInCU: 0x34C0A, offset: 0x34C0A, size: 0x8, addend: 0x0, symName: __ZN5Eigen8internal31generic_dense_assignment_kernelINS0_9evaluatorINS_5BlockINS_6MatrixIdLin1ELin1ELi0ELin1ELin1EEELin1ELin1ELb0EEEEES7_NS0_9assign_opIddEELi0EE12assignPacketILi16ELi0E19__simd128_float64_tEEvll, symObjAddr: 0x73F4, symBinAddr: 0x10000A864, symSize: 0x70 }
  - { offsetInCU: 0x34C6B, offset: 0x34C6B, size: 0x8, addend: 0x0, symName: __ZNK5Eigen8internal17mapbase_evaluatorINS_5BlockINS_6MatrixIdLin1ELin1ELi0ELin1ELin1EEELin1ELin1ELb0EEES4_E6packetILi0E19__simd128_float64_tEET0_ll, symObjAddr: 0x7464, symBinAddr: 0x10000A8D4, symSize: 0x8C }
  - { offsetInCU: 0x34CEF, offset: 0x34CEF, size: 0x8, addend: 0x0, symName: __ZN5Eigen8internal9evaluatorINS_5BlockINS_6MatrixIdLin1ELin1ELi0ELin1ELin1EEELin1ELin1ELb0EEEED2Ev, symObjAddr: 0x74F0, symBinAddr: 0x10000A960, symSize: 0x2C }
  - { offsetInCU: 0x34D1C, offset: 0x34D1C, size: 0x8, addend: 0x0, symName: __ZN5Eigen8internal15block_evaluatorINS_6MatrixIdLin1ELin1ELi0ELin1ELin1EEELin1ELin1ELb0ELb1EED2Ev, symObjAddr: 0x751C, symBinAddr: 0x10000A98C, symSize: 0x2C }
  - { offsetInCU: 0x34D49, offset: 0x34D49, size: 0x8, addend: 0x0, symName: __ZN5Eigen8internal16matrix_swap_implINS_6MatrixIdLin1ELin1ELi0ELin1ELin1EEES3_Lb1EE3runERS3_S5_, symObjAddr: 0x7548, symBinAddr: 0x10000A9B8, symSize: 0x2C }
  - { offsetInCU: 0x34D7C, offset: 0x34D7C, size: 0x8, addend: 0x0, symName: __ZN5Eigen12DenseStorageIdLin1ELin1ELin1ELi0EE4swapERS1_, symObjAddr: 0x7574, symBinAddr: 0x10000A9E4, symSize: 0x58 }
  - { offsetInCU: 0x34DB1, offset: 0x34DB1, size: 0x8, addend: 0x0, symName: __ZN5Eigen12ArrayWrapperINS_6MatrixIdLin1ELin1ELi0ELin1ELin1EEEEC1ERS2_, symObjAddr: 0x769C, symBinAddr: 0x10000AB0C, symSize: 0x34 }
  - { offsetInCU: 0x34DE9, offset: 0x34DE9, size: 0x8, addend: 0x0, symName: __ZN5Eigen12ArrayWrapperINS_6MatrixIdLin1ELin1ELi0ELin1ELin1EEEEC2ERS2_, symObjAddr: 0x76D0, symBinAddr: 0x10000AB40, symSize: 0x38 }
  - { offsetInCU: 0x34E21, offset: 0x34E21, size: 0x8, addend: 0x0, symName: __ZN5Eigen9ArrayBaseINS_12ArrayWrapperINS_6MatrixIdLin1ELin1ELi0ELin1ELin1EEEEEEC2Ev, symObjAddr: 0x7708, symBinAddr: 0x10000AB78, symSize: 0x2C }
  - { offsetInCU: 0x34E4B, offset: 0x34E4B, size: 0x8, addend: 0x0, symName: __ZN5Eigen9DenseBaseINS_12ArrayWrapperINS_6MatrixIdLin1ELin1ELi0ELin1ELin1EEEEEEC2Ev, symObjAddr: 0x7734, symBinAddr: 0x10000ABA4, symSize: 0x14 }
  - { offsetInCU: 0x34E75, offset: 0x34E75, size: 0x8, addend: 0x0, symName: __ZNK5Eigen9EigenBaseINS_12ArrayWrapperINS_6MatrixIdLin1ELin1ELi0ELin1ELin1EEEEEE7derivedEv, symObjAddr: 0x7748, symBinAddr: 0x10000ABB8, symSize: 0x14 }
  - { offsetInCU: 0x34E9B, offset: 0x34E9B, size: 0x8, addend: 0x0, symName: __ZN5Eigen8internal17scalar_product_opIddEC1Ev, symObjAddr: 0x775C, symBinAddr: 0x10000ABCC, symSize: 0x2C }
  - { offsetInCU: 0x34EC5, offset: 0x34EC5, size: 0x8, addend: 0x0, symName: __ZN5Eigen13CwiseBinaryOpINS_8internal17scalar_product_opIddEEKNS_12ArrayWrapperINS_6MatrixIdLin1ELin1ELi0ELin1ELin1EEEEES8_EC1ERS8_SA_RKS3_, symObjAddr: 0x7788, symBinAddr: 0x10000ABF8, symSize: 0x44 }
  - { offsetInCU: 0x34F19, offset: 0x34F19, size: 0x8, addend: 0x0, symName: __ZN5Eigen8internal17scalar_product_opIddEC2Ev, symObjAddr: 0x77CC, symBinAddr: 0x10000AC3C, symSize: 0x14 }
  - { offsetInCU: 0x34F43, offset: 0x34F43, size: 0x8, addend: 0x0, symName: __ZN5Eigen13CwiseBinaryOpINS_8internal17scalar_product_opIddEEKNS_12ArrayWrapperINS_6MatrixIdLin1ELin1ELi0ELin1ELin1EEEEES8_EC2ERS8_SA_RKS3_, symObjAddr: 0x77E0, symBinAddr: 0x10000AC50, symSize: 0x100 }
  - { offsetInCU: 0x34F9C, offset: 0x34F9C, size: 0x8, addend: 0x0, symName: __ZN5Eigen17CwiseBinaryOpImplINS_8internal17scalar_product_opIddEEKNS_12ArrayWrapperINS_6MatrixIdLin1ELin1ELi0ELin1ELin1EEEEES8_NS_5DenseEEC2Ev, symObjAddr: 0x78E0, symBinAddr: 0x10000AD50, symSize: 0x2C }
  - { offsetInCU: 0x34FC8, offset: 0x34FC8, size: 0x8, addend: 0x0, symName: __ZN5Eigen8internal22no_assignment_operatorC2Ev, symObjAddr: 0x790C, symBinAddr: 0x10000AD7C, symSize: 0x14 }
  - { offsetInCU: 0x34FF2, offset: 0x34FF2, size: 0x8, addend: 0x0, symName: __ZN5Eigen8internal17scalar_product_opIddEC1ERKS2_, symObjAddr: 0x7920, symBinAddr: 0x10000AD90, symSize: 0x34 }
  - { offsetInCU: 0x35027, offset: 0x35027, size: 0x8, addend: 0x0, symName: __ZNK5Eigen12ArrayWrapperINS_6MatrixIdLin1ELin1ELi0ELin1ELin1EEEE4rowsEv, symObjAddr: 0x7954, symBinAddr: 0x10000ADC4, symSize: 0x28 }
  - { offsetInCU: 0x3504D, offset: 0x3504D, size: 0x8, addend: 0x0, symName: __ZNK5Eigen12ArrayWrapperINS_6MatrixIdLin1ELin1ELi0ELin1ELin1EEEE4colsEv, symObjAddr: 0x797C, symBinAddr: 0x10000ADEC, symSize: 0x28 }
  - { offsetInCU: 0x35073, offset: 0x35073, size: 0x8, addend: 0x0, symName: __ZN5Eigen9ArrayBaseINS_13CwiseBinaryOpINS_8internal17scalar_product_opIddEEKNS_12ArrayWrapperINS_6MatrixIdLin1ELin1ELi0ELin1ELin1EEEEES9_EEEC2Ev, symObjAddr: 0x79A4, symBinAddr: 0x10000AE14, symSize: 0x2C }
  - { offsetInCU: 0x3509D, offset: 0x3509D, size: 0x8, addend: 0x0, symName: __ZN5Eigen9DenseBaseINS_13CwiseBinaryOpINS_8internal17scalar_product_opIddEEKNS_12ArrayWrapperINS_6MatrixIdLin1ELin1ELi0ELin1ELin1EEEEES9_EEEC2Ev, symObjAddr: 0x79D0, symBinAddr: 0x10000AE40, symSize: 0x14 }
  - { offsetInCU: 0x350C7, offset: 0x350C7, size: 0x8, addend: 0x0, symName: __ZN5Eigen8internal17scalar_product_opIddEC2ERKS2_, symObjAddr: 0x79E4, symBinAddr: 0x10000AE54, symSize: 0x18 }
  - { offsetInCU: 0x350FC, offset: 0x350FC, size: 0x8, addend: 0x0, symName: __ZNK5Eigen9EigenBaseINS_13CwiseBinaryOpINS_8internal17scalar_product_opIddEEKNS_12ArrayWrapperINS_6MatrixIdLin1ELin1ELi0ELin1ELin1EEEEES9_EEE7derivedEv, symObjAddr: 0x79FC, symBinAddr: 0x10000AE6C, symSize: 0x14 }
  - { offsetInCU: 0x35122, offset: 0x35122, size: 0x8, addend: 0x0, symName: __ZN5Eigen8internal13scalar_sum_opIddEC1Ev, symObjAddr: 0x7A10, symBinAddr: 0x10000AE80, symSize: 0x2C }
  - { offsetInCU: 0x3514C, offset: 0x3514C, size: 0x8, addend: 0x0, symName: __ZN5Eigen13CwiseBinaryOpINS_8internal13scalar_sum_opIddEEKNS0_INS1_17scalar_product_opIddEEKNS_12ArrayWrapperINS_6MatrixIdLin1ELin1ELi0ELin1ELin1EEEEESA_EESC_EC1ERSC_SE_RKS3_, symObjAddr: 0x7A3C, symBinAddr: 0x10000AEAC, symSize: 0x44 }
  - { offsetInCU: 0x351A0, offset: 0x351A0, size: 0x8, addend: 0x0, symName: __ZN5Eigen8internal13scalar_sum_opIddEC2Ev, symObjAddr: 0x7A80, symBinAddr: 0x10000AEF0, symSize: 0x14 }
  - { offsetInCU: 0x351CA, offset: 0x351CA, size: 0x8, addend: 0x0, symName: __ZN5Eigen13CwiseBinaryOpINS_8internal13scalar_sum_opIddEEKNS0_INS1_17scalar_product_opIddEEKNS_12ArrayWrapperINS_6MatrixIdLin1ELin1ELi0ELin1ELin1EEEEESA_EESC_EC2ERSC_SE_RKS3_, symObjAddr: 0x7A94, symBinAddr: 0x10000AF04, symSize: 0x104 }
  - { offsetInCU: 0x35223, offset: 0x35223, size: 0x8, addend: 0x0, symName: __ZN5Eigen17CwiseBinaryOpImplINS_8internal13scalar_sum_opIddEEKNS_13CwiseBinaryOpINS1_17scalar_product_opIddEEKNS_12ArrayWrapperINS_6MatrixIdLin1ELin1ELi0ELin1ELin1EEEEESB_EESD_NS_5DenseEEC2Ev, symObjAddr: 0x7B98, symBinAddr: 0x10000B008, symSize: 0x2C }
  - { offsetInCU: 0x3524F, offset: 0x3524F, size: 0x8, addend: 0x0, symName: __ZN5Eigen13CwiseBinaryOpINS_8internal17scalar_product_opIddEEKNS_12ArrayWrapperINS_6MatrixIdLin1ELin1ELi0ELin1ELin1EEEEES8_EC1ERKS9_, symObjAddr: 0x7BC4, symBinAddr: 0x10000B034, symSize: 0x34 }
  - { offsetInCU: 0x35284, offset: 0x35284, size: 0x8, addend: 0x0, symName: __ZN5Eigen8internal13scalar_sum_opIddEC1ERKS2_, symObjAddr: 0x7BF8, symBinAddr: 0x10000B068, symSize: 0x34 }
  - { offsetInCU: 0x352B9, offset: 0x352B9, size: 0x8, addend: 0x0, symName: __ZNK5Eigen13CwiseBinaryOpINS_8internal17scalar_product_opIddEEKNS_12ArrayWrapperINS_6MatrixIdLin1ELin1ELi0ELin1ELin1EEEEES8_E4rowsEv, symObjAddr: 0x7C2C, symBinAddr: 0x10000B09C, symSize: 0x28 }
  - { offsetInCU: 0x352DF, offset: 0x352DF, size: 0x8, addend: 0x0, symName: __ZNK5Eigen13CwiseBinaryOpINS_8internal17scalar_product_opIddEEKNS_12ArrayWrapperINS_6MatrixIdLin1ELin1ELi0ELin1ELin1EEEEES8_E4colsEv, symObjAddr: 0x7C54, symBinAddr: 0x10000B0C4, symSize: 0x28 }
  - { offsetInCU: 0x35305, offset: 0x35305, size: 0x8, addend: 0x0, symName: __ZN5Eigen9ArrayBaseINS_13CwiseBinaryOpINS_8internal13scalar_sum_opIddEEKNS1_INS2_17scalar_product_opIddEEKNS_12ArrayWrapperINS_6MatrixIdLin1ELin1ELi0ELin1ELin1EEEEESB_EESD_EEEC2Ev, symObjAddr: 0x7C7C, symBinAddr: 0x10000B0EC, symSize: 0x2C }
  - { offsetInCU: 0x3532F, offset: 0x3532F, size: 0x8, addend: 0x0, symName: __ZN5Eigen9DenseBaseINS_13CwiseBinaryOpINS_8internal13scalar_sum_opIddEEKNS1_INS2_17scalar_product_opIddEEKNS_12ArrayWrapperINS_6MatrixIdLin1ELin1ELi0ELin1ELin1EEEEESB_EESD_EEEC2Ev, symObjAddr: 0x7CA8, symBinAddr: 0x10000B118, symSize: 0x14 }
  - { offsetInCU: 0x35359, offset: 0x35359, size: 0x8, addend: 0x0, symName: __ZN5Eigen13CwiseBinaryOpINS_8internal17scalar_product_opIddEEKNS_12ArrayWrapperINS_6MatrixIdLin1ELin1ELi0ELin1ELin1EEEEES8_EC2ERKS9_, symObjAddr: 0x7CBC, symBinAddr: 0x10000B12C, symSize: 0x48 }
  - { offsetInCU: 0x3538E, offset: 0x3538E, size: 0x8, addend: 0x0, symName: __ZN5Eigen8internal13scalar_sum_opIddEC2ERKS2_, symObjAddr: 0x7D04, symBinAddr: 0x10000B174, symSize: 0x18 }
  - { offsetInCU: 0x353C3, offset: 0x353C3, size: 0x8, addend: 0x0, symName: __ZNK5Eigen9EigenBaseINS_13CwiseBinaryOpINS_8internal13scalar_sum_opIddEEKNS1_INS2_17scalar_product_opIddEEKNS_12ArrayWrapperINS_6MatrixIdLin1ELin1ELi0ELin1ELin1EEEEESB_EESD_EEE7derivedEv, symObjAddr: 0x7D1C, symBinAddr: 0x10000B18C, symSize: 0x14 }
  - { offsetInCU: 0x353E9, offset: 0x353E9, size: 0x8, addend: 0x0, symName: __ZN5Eigen13CwiseBinaryOpINS_8internal13scalar_sum_opIddEEKNS0_IS3_KNS0_INS1_17scalar_product_opIddEEKNS_12ArrayWrapperINS_6MatrixIdLin1ELin1ELi0ELin1ELin1EEEEESA_EESC_EESC_EC1ERSE_RSC_RKS3_, symObjAddr: 0x7D30, symBinAddr: 0x10000B1A0, symSize: 0x44 }
  - { offsetInCU: 0x3543D, offset: 0x3543D, size: 0x8, addend: 0x0, symName: __ZN5Eigen13CwiseBinaryOpINS_8internal13scalar_sum_opIddEEKNS0_IS3_KNS0_INS1_17scalar_product_opIddEEKNS_12ArrayWrapperINS_6MatrixIdLin1ELin1ELi0ELin1ELin1EEEEESA_EESC_EESC_EC2ERSE_RSC_RKS3_, symObjAddr: 0x7D74, symBinAddr: 0x10000B1E4, symSize: 0x104 }
  - { offsetInCU: 0x35496, offset: 0x35496, size: 0x8, addend: 0x0, symName: __ZN5Eigen17CwiseBinaryOpImplINS_8internal13scalar_sum_opIddEEKNS_13CwiseBinaryOpIS3_KNS4_INS1_17scalar_product_opIddEEKNS_12ArrayWrapperINS_6MatrixIdLin1ELin1ELi0ELin1ELin1EEEEESB_EESD_EESD_NS_5DenseEEC2Ev, symObjAddr: 0x7E78, symBinAddr: 0x10000B2E8, symSize: 0x2C }
  - { offsetInCU: 0x354C2, offset: 0x354C2, size: 0x8, addend: 0x0, symName: __ZN5Eigen13CwiseBinaryOpINS_8internal13scalar_sum_opIddEEKNS0_INS1_17scalar_product_opIddEEKNS_12ArrayWrapperINS_6MatrixIdLin1ELin1ELi0ELin1ELin1EEEEESA_EESC_EC1ERKSD_, symObjAddr: 0x7EA4, symBinAddr: 0x10000B314, symSize: 0x34 }
  - { offsetInCU: 0x354F7, offset: 0x354F7, size: 0x8, addend: 0x0, symName: __ZNK5Eigen13CwiseBinaryOpINS_8internal13scalar_sum_opIddEEKNS0_INS1_17scalar_product_opIddEEKNS_12ArrayWrapperINS_6MatrixIdLin1ELin1ELi0ELin1ELin1EEEEESA_EESC_E4rowsEv, symObjAddr: 0x7ED8, symBinAddr: 0x10000B348, symSize: 0x28 }
  - { offsetInCU: 0x3551D, offset: 0x3551D, size: 0x8, addend: 0x0, symName: __ZNK5Eigen13CwiseBinaryOpINS_8internal13scalar_sum_opIddEEKNS0_INS1_17scalar_product_opIddEEKNS_12ArrayWrapperINS_6MatrixIdLin1ELin1ELi0ELin1ELin1EEEEESA_EESC_E4colsEv, symObjAddr: 0x7F00, symBinAddr: 0x10000B370, symSize: 0x28 }
  - { offsetInCU: 0x35543, offset: 0x35543, size: 0x8, addend: 0x0, symName: __ZN5Eigen9ArrayBaseINS_13CwiseBinaryOpINS_8internal13scalar_sum_opIddEEKNS1_IS4_KNS1_INS2_17scalar_product_opIddEEKNS_12ArrayWrapperINS_6MatrixIdLin1ELin1ELi0ELin1ELin1EEEEESB_EESD_EESD_EEEC2Ev, symObjAddr: 0x7F28, symBinAddr: 0x10000B398, symSize: 0x2C }
  - { offsetInCU: 0x3556D, offset: 0x3556D, size: 0x8, addend: 0x0, symName: __ZN5Eigen9DenseBaseINS_13CwiseBinaryOpINS_8internal13scalar_sum_opIddEEKNS1_IS4_KNS1_INS2_17scalar_product_opIddEEKNS_12ArrayWrapperINS_6MatrixIdLin1ELin1ELi0ELin1ELin1EEEEESB_EESD_EESD_EEEC2Ev, symObjAddr: 0x7F54, symBinAddr: 0x10000B3C4, symSize: 0x14 }
  - { offsetInCU: 0x35597, offset: 0x35597, size: 0x8, addend: 0x0, symName: __ZN5Eigen13CwiseBinaryOpINS_8internal13scalar_sum_opIddEEKNS0_INS1_17scalar_product_opIddEEKNS_12ArrayWrapperINS_6MatrixIdLin1ELin1ELi0ELin1ELin1EEEEESA_EESC_EC2ERKSD_, symObjAddr: 0x7F68, symBinAddr: 0x10000B3D8, symSize: 0x64 }
  - { offsetInCU: 0x355CC, offset: 0x355CC, size: 0x8, addend: 0x0, symName: __ZNK5Eigen9EigenBaseINS_13CwiseBinaryOpINS_8internal13scalar_sum_opIddEEKNS1_IS4_KNS1_INS2_17scalar_product_opIddEEKNS_12ArrayWrapperINS_6MatrixIdLin1ELin1ELi0ELin1ELin1EEEEESB_EESD_EESD_EEE7derivedEv, symObjAddr: 0x7FCC, symBinAddr: 0x10000B43C, symSize: 0x14 }
  - { offsetInCU: 0x355F2, offset: 0x355F2, size: 0x8, addend: 0x0, symName: __ZN5Eigen13CwiseBinaryOpINS_8internal13scalar_sum_opIddEEKNS0_IS3_KNS0_IS3_KNS0_INS1_17scalar_product_opIddEEKNS_12ArrayWrapperINS_6MatrixIdLin1ELin1ELi0ELin1ELin1EEEEESA_EESC_EESC_EESC_EC1ERSG_RSC_RKS3_, symObjAddr: 0x7FE0, symBinAddr: 0x10000B450, symSize: 0x44 }
  - { offsetInCU: 0x35646, offset: 0x35646, size: 0x8, addend: 0x0, symName: __ZN5Eigen13CwiseBinaryOpINS_8internal13scalar_sum_opIddEEKNS0_IS3_KNS0_IS3_KNS0_INS1_17scalar_product_opIddEEKNS_12ArrayWrapperINS_6MatrixIdLin1ELin1ELi0ELin1ELin1EEEEESA_EESC_EESC_EESC_EC2ERSG_RSC_RKS3_, symObjAddr: 0x8024, symBinAddr: 0x10000B494, symSize: 0x104 }
  - { offsetInCU: 0x3569F, offset: 0x3569F, size: 0x8, addend: 0x0, symName: __ZN5Eigen17CwiseBinaryOpImplINS_8internal13scalar_sum_opIddEEKNS_13CwiseBinaryOpIS3_KNS4_IS3_KNS4_INS1_17scalar_product_opIddEEKNS_12ArrayWrapperINS_6MatrixIdLin1ELin1ELi0ELin1ELin1EEEEESB_EESD_EESD_EESD_NS_5DenseEEC2Ev, symObjAddr: 0x8128, symBinAddr: 0x10000B598, symSize: 0x2C }
  - { offsetInCU: 0x356CB, offset: 0x356CB, size: 0x8, addend: 0x0, symName: __ZN5Eigen13CwiseBinaryOpINS_8internal13scalar_sum_opIddEEKNS0_IS3_KNS0_INS1_17scalar_product_opIddEEKNS_12ArrayWrapperINS_6MatrixIdLin1ELin1ELi0ELin1ELin1EEEEESA_EESC_EESC_EC1ERKSF_, symObjAddr: 0x8154, symBinAddr: 0x10000B5C4, symSize: 0x34 }
  - { offsetInCU: 0x35700, offset: 0x35700, size: 0x8, addend: 0x0, symName: __ZNK5Eigen13CwiseBinaryOpINS_8internal13scalar_sum_opIddEEKNS0_IS3_KNS0_INS1_17scalar_product_opIddEEKNS_12ArrayWrapperINS_6MatrixIdLin1ELin1ELi0ELin1ELin1EEEEESA_EESC_EESC_E4rowsEv, symObjAddr: 0x8188, symBinAddr: 0x10000B5F8, symSize: 0x28 }
  - { offsetInCU: 0x35726, offset: 0x35726, size: 0x8, addend: 0x0, symName: __ZNK5Eigen13CwiseBinaryOpINS_8internal13scalar_sum_opIddEEKNS0_IS3_KNS0_INS1_17scalar_product_opIddEEKNS_12ArrayWrapperINS_6MatrixIdLin1ELin1ELi0ELin1ELin1EEEEESA_EESC_EESC_E4colsEv, symObjAddr: 0x81B0, symBinAddr: 0x10000B620, symSize: 0x28 }
  - { offsetInCU: 0x3574C, offset: 0x3574C, size: 0x8, addend: 0x0, symName: __ZN5Eigen9ArrayBaseINS_13CwiseBinaryOpINS_8internal13scalar_sum_opIddEEKNS1_IS4_KNS1_IS4_KNS1_INS2_17scalar_product_opIddEEKNS_12ArrayWrapperINS_6MatrixIdLin1ELin1ELi0ELin1ELin1EEEEESB_EESD_EESD_EESD_EEEC2Ev, symObjAddr: 0x81D8, symBinAddr: 0x10000B648, symSize: 0x2C }
  - { offsetInCU: 0x35776, offset: 0x35776, size: 0x8, addend: 0x0, symName: __ZN5Eigen9DenseBaseINS_13CwiseBinaryOpINS_8internal13scalar_sum_opIddEEKNS1_IS4_KNS1_IS4_KNS1_INS2_17scalar_product_opIddEEKNS_12ArrayWrapperINS_6MatrixIdLin1ELin1ELi0ELin1ELin1EEEEESB_EESD_EESD_EESD_EEEC2Ev, symObjAddr: 0x8204, symBinAddr: 0x10000B674, symSize: 0x14 }
  - { offsetInCU: 0x357A0, offset: 0x357A0, size: 0x8, addend: 0x0, symName: __ZN5Eigen13CwiseBinaryOpINS_8internal13scalar_sum_opIddEEKNS0_IS3_KNS0_INS1_17scalar_product_opIddEEKNS_12ArrayWrapperINS_6MatrixIdLin1ELin1ELi0ELin1ELin1EEEEESA_EESC_EESC_EC2ERKSF_, symObjAddr: 0x8218, symBinAddr: 0x10000B688, symSize: 0x64 }
  - { offsetInCU: 0x357D5, offset: 0x357D5, size: 0x8, addend: 0x0, symName: __ZNK5Eigen9EigenBaseINS_13CwiseBinaryOpINS_8internal13scalar_sum_opIddEEKNS1_IS4_KNS1_IS4_KNS1_INS2_17scalar_product_opIddEEKNS_12ArrayWrapperINS_6MatrixIdLin1ELin1ELi0ELin1ELin1EEEEESB_EESD_EESD_EESD_EEE7derivedEv, symObjAddr: 0x827C, symBinAddr: 0x10000B6EC, symSize: 0x14 }
  - { offsetInCU: 0x357FB, offset: 0x357FB, size: 0x8, addend: 0x0, symName: __ZN5Eigen13CwiseBinaryOpINS_8internal13scalar_sum_opIddEEKNS0_IS3_KNS0_IS3_KNS0_IS3_KNS0_INS1_17scalar_product_opIddEEKNS_12ArrayWrapperINS_6MatrixIdLin1ELin1ELi0ELin1ELin1EEEEESA_EESC_EESC_EESC_EESC_EC1ERSI_RSC_RKS3_, symObjAddr: 0x8290, symBinAddr: 0x10000B700, symSize: 0x44 }
  - { offsetInCU: 0x3584F, offset: 0x3584F, size: 0x8, addend: 0x0, symName: __ZN5Eigen13CwiseBinaryOpINS_8internal13scalar_sum_opIddEEKNS0_IS3_KNS0_IS3_KNS0_IS3_KNS0_INS1_17scalar_product_opIddEEKNS_12ArrayWrapperINS_6MatrixIdLin1ELin1ELi0ELin1ELin1EEEEESA_EESC_EESC_EESC_EESC_EC2ERSI_RSC_RKS3_, symObjAddr: 0x82D4, symBinAddr: 0x10000B744, symSize: 0x104 }
  - { offsetInCU: 0x358A8, offset: 0x358A8, size: 0x8, addend: 0x0, symName: __ZN5Eigen17CwiseBinaryOpImplINS_8internal13scalar_sum_opIddEEKNS_13CwiseBinaryOpIS3_KNS4_IS3_KNS4_IS3_KNS4_INS1_17scalar_product_opIddEEKNS_12ArrayWrapperINS_6MatrixIdLin1ELin1ELi0ELin1ELin1EEEEESB_EESD_EESD_EESD_EESD_NS_5DenseEEC2Ev, symObjAddr: 0x83D8, symBinAddr: 0x10000B848, symSize: 0x2C }
  - { offsetInCU: 0x358D4, offset: 0x358D4, size: 0x8, addend: 0x0, symName: __ZN5Eigen13CwiseBinaryOpINS_8internal13scalar_sum_opIddEEKNS0_IS3_KNS0_IS3_KNS0_INS1_17scalar_product_opIddEEKNS_12ArrayWrapperINS_6MatrixIdLin1ELin1ELi0ELin1ELin1EEEEESA_EESC_EESC_EESC_EC1ERKSH_, symObjAddr: 0x8404, symBinAddr: 0x10000B874, symSize: 0x34 }
  - { offsetInCU: 0x35909, offset: 0x35909, size: 0x8, addend: 0x0, symName: __ZNK5Eigen13CwiseBinaryOpINS_8internal13scalar_sum_opIddEEKNS0_IS3_KNS0_IS3_KNS0_INS1_17scalar_product_opIddEEKNS_12ArrayWrapperINS_6MatrixIdLin1ELin1ELi0ELin1ELin1EEEEESA_EESC_EESC_EESC_E4rowsEv, symObjAddr: 0x8438, symBinAddr: 0x10000B8A8, symSize: 0x28 }
  - { offsetInCU: 0x3592F, offset: 0x3592F, size: 0x8, addend: 0x0, symName: __ZNK5Eigen13CwiseBinaryOpINS_8internal13scalar_sum_opIddEEKNS0_IS3_KNS0_IS3_KNS0_INS1_17scalar_product_opIddEEKNS_12ArrayWrapperINS_6MatrixIdLin1ELin1ELi0ELin1ELin1EEEEESA_EESC_EESC_EESC_E4colsEv, symObjAddr: 0x8460, symBinAddr: 0x10000B8D0, symSize: 0x28 }
  - { offsetInCU: 0x35955, offset: 0x35955, size: 0x8, addend: 0x0, symName: __ZN5Eigen9ArrayBaseINS_13CwiseBinaryOpINS_8internal13scalar_sum_opIddEEKNS1_IS4_KNS1_IS4_KNS1_IS4_KNS1_INS2_17scalar_product_opIddEEKNS_12ArrayWrapperINS_6MatrixIdLin1ELin1ELi0ELin1ELin1EEEEESB_EESD_EESD_EESD_EESD_EEEC2Ev, symObjAddr: 0x8488, symBinAddr: 0x10000B8F8, symSize: 0x2C }
  - { offsetInCU: 0x3597F, offset: 0x3597F, size: 0x8, addend: 0x0, symName: __ZN5Eigen9DenseBaseINS_13CwiseBinaryOpINS_8internal13scalar_sum_opIddEEKNS1_IS4_KNS1_IS4_KNS1_IS4_KNS1_INS2_17scalar_product_opIddEEKNS_12ArrayWrapperINS_6MatrixIdLin1ELin1ELi0ELin1ELin1EEEEESB_EESD_EESD_EESD_EESD_EEEC2Ev, symObjAddr: 0x84B4, symBinAddr: 0x10000B924, symSize: 0x14 }
  - { offsetInCU: 0x359A9, offset: 0x359A9, size: 0x8, addend: 0x0, symName: __ZN5Eigen13CwiseBinaryOpINS_8internal13scalar_sum_opIddEEKNS0_IS3_KNS0_IS3_KNS0_INS1_17scalar_product_opIddEEKNS_12ArrayWrapperINS_6MatrixIdLin1ELin1ELi0ELin1ELin1EEEEESA_EESC_EESC_EESC_EC2ERKSH_, symObjAddr: 0x84C8, symBinAddr: 0x10000B938, symSize: 0x64 }
  - { offsetInCU: 0x359DE, offset: 0x359DE, size: 0x8, addend: 0x0, symName: __ZNK5Eigen9EigenBaseINS_13CwiseBinaryOpINS_8internal13scalar_sum_opIddEEKNS1_IS4_KNS1_IS4_KNS1_IS4_KNS1_INS2_17scalar_product_opIddEEKNS_12ArrayWrapperINS_6MatrixIdLin1ELin1ELi0ELin1ELin1EEEEESB_EESD_EESD_EESD_EESD_EEE7derivedEv, symObjAddr: 0x852C, symBinAddr: 0x10000B99C, symSize: 0x14 }
  - { offsetInCU: 0x35A04, offset: 0x35A04, size: 0x8, addend: 0x0, symName: __ZN5Eigen13CwiseBinaryOpINS_8internal13scalar_sum_opIddEEKNS0_IS3_KNS0_IS3_KNS0_IS3_KNS0_IS3_KNS0_INS1_17scalar_product_opIddEEKNS_12ArrayWrapperINS_6MatrixIdLin1ELin1ELi0ELin1ELin1EEEEESA_EESC_EESC_EESC_EESC_EESC_EC1ERSK_RSC_RKS3_, symObjAddr: 0x8540, symBinAddr: 0x10000B9B0, symSize: 0x44 }
  - { offsetInCU: 0x35A58, offset: 0x35A58, size: 0x8, addend: 0x0, symName: __ZN5Eigen13CwiseBinaryOpINS_8internal13scalar_sum_opIddEEKNS0_IS3_KNS0_IS3_KNS0_IS3_KNS0_IS3_KNS0_INS1_17scalar_product_opIddEEKNS_12ArrayWrapperINS_6MatrixIdLin1ELin1ELi0ELin1ELin1EEEEESA_EESC_EESC_EESC_EESC_EESC_EC2ERSK_RSC_RKS3_, symObjAddr: 0x8584, symBinAddr: 0x10000B9F4, symSize: 0x104 }
  - { offsetInCU: 0x35AB1, offset: 0x35AB1, size: 0x8, addend: 0x0, symName: __ZN5Eigen17CwiseBinaryOpImplINS_8internal13scalar_sum_opIddEEKNS_13CwiseBinaryOpIS3_KNS4_IS3_KNS4_IS3_KNS4_IS3_KNS4_INS1_17scalar_product_opIddEEKNS_12ArrayWrapperINS_6MatrixIdLin1ELin1ELi0ELin1ELin1EEEEESB_EESD_EESD_EESD_EESD_EESD_NS_5DenseEEC2Ev, symObjAddr: 0x8688, symBinAddr: 0x10000BAF8, symSize: 0x2C }
  - { offsetInCU: 0x35ADD, offset: 0x35ADD, size: 0x8, addend: 0x0, symName: __ZN5Eigen13CwiseBinaryOpINS_8internal13scalar_sum_opIddEEKNS0_IS3_KNS0_IS3_KNS0_IS3_KNS0_INS1_17scalar_product_opIddEEKNS_12ArrayWrapperINS_6MatrixIdLin1ELin1ELi0ELin1ELin1EEEEESA_EESC_EESC_EESC_EESC_EC1ERKSJ_, symObjAddr: 0x86B4, symBinAddr: 0x10000BB24, symSize: 0x34 }
  - { offsetInCU: 0x35B12, offset: 0x35B12, size: 0x8, addend: 0x0, symName: __ZNK5Eigen13CwiseBinaryOpINS_8internal13scalar_sum_opIddEEKNS0_IS3_KNS0_IS3_KNS0_IS3_KNS0_INS1_17scalar_product_opIddEEKNS_12ArrayWrapperINS_6MatrixIdLin1ELin1ELi0ELin1ELin1EEEEESA_EESC_EESC_EESC_EESC_E4rowsEv, symObjAddr: 0x86E8, symBinAddr: 0x10000BB58, symSize: 0x28 }
  - { offsetInCU: 0x35B38, offset: 0x35B38, size: 0x8, addend: 0x0, symName: __ZNK5Eigen13CwiseBinaryOpINS_8internal13scalar_sum_opIddEEKNS0_IS3_KNS0_IS3_KNS0_IS3_KNS0_INS1_17scalar_product_opIddEEKNS_12ArrayWrapperINS_6MatrixIdLin1ELin1ELi0ELin1ELin1EEEEESA_EESC_EESC_EESC_EESC_E4colsEv, symObjAddr: 0x8710, symBinAddr: 0x10000BB80, symSize: 0x28 }
  - { offsetInCU: 0x35B5E, offset: 0x35B5E, size: 0x8, addend: 0x0, symName: __ZN5Eigen9ArrayBaseINS_13CwiseBinaryOpINS_8internal13scalar_sum_opIddEEKNS1_IS4_KNS1_IS4_KNS1_IS4_KNS1_IS4_KNS1_INS2_17scalar_product_opIddEEKNS_12ArrayWrapperINS_6MatrixIdLin1ELin1ELi0ELin1ELin1EEEEESB_EESD_EESD_EESD_EESD_EESD_EEEC2Ev, symObjAddr: 0x8738, symBinAddr: 0x10000BBA8, symSize: 0x2C }
  - { offsetInCU: 0x35B88, offset: 0x35B88, size: 0x8, addend: 0x0, symName: __ZN5Eigen9DenseBaseINS_13CwiseBinaryOpINS_8internal13scalar_sum_opIddEEKNS1_IS4_KNS1_IS4_KNS1_IS4_KNS1_IS4_KNS1_INS2_17scalar_product_opIddEEKNS_12ArrayWrapperINS_6MatrixIdLin1ELin1ELi0ELin1ELin1EEEEESB_EESD_EESD_EESD_EESD_EESD_EEEC2Ev, symObjAddr: 0x8764, symBinAddr: 0x10000BBD4, symSize: 0x14 }
  - { offsetInCU: 0x35BB2, offset: 0x35BB2, size: 0x8, addend: 0x0, symName: __ZN5Eigen13CwiseBinaryOpINS_8internal13scalar_sum_opIddEEKNS0_IS3_KNS0_IS3_KNS0_IS3_KNS0_INS1_17scalar_product_opIddEEKNS_12ArrayWrapperINS_6MatrixIdLin1ELin1ELi0ELin1ELin1EEEEESA_EESC_EESC_EESC_EESC_EC2ERKSJ_, symObjAddr: 0x8778, symBinAddr: 0x10000BBE8, symSize: 0x64 }
  - { offsetInCU: 0x35BE7, offset: 0x35BE7, size: 0x8, addend: 0x0, symName: __ZN5Eigen6MatrixIdLin1ELin1ELi0ELin1ELin1EEC2INS_13CwiseBinaryOpINS_8internal13scalar_sum_opIddEEKNS3_IS6_KNS3_IS6_KNS3_IS6_KNS3_IS6_KNS3_INS4_17scalar_product_opIddEEKNS_12ArrayWrapperIS1_EESB_EESD_EESD_EESD_EESD_EESD_EEEERKNS_9EigenBaseIT_EE, symObjAddr: 0x87DC, symBinAddr: 0x10000BC4C, symSize: 0x40 }
  - { offsetInCU: 0x35C29, offset: 0x35C29, size: 0x8, addend: 0x0, symName: __ZNK5Eigen9EigenBaseINS_13CwiseBinaryOpINS_8internal13scalar_sum_opIddEEKNS1_IS4_KNS1_IS4_KNS1_IS4_KNS1_IS4_KNS1_INS2_17scalar_product_opIddEEKNS_12ArrayWrapperINS_6MatrixIdLin1ELin1ELi0ELin1ELin1EEEEESB_EESD_EESD_EESD_EESD_EESD_EEE7derivedEv, symObjAddr: 0x881C, symBinAddr: 0x10000BC8C, symSize: 0x14 }
  - { offsetInCU: 0x35C4F, offset: 0x35C4F, size: 0x8, addend: 0x0, symName: __ZN5Eigen15PlainObjectBaseINS_6MatrixIdLin1ELin1ELi0ELin1ELin1EEEEC2INS_13CwiseBinaryOpINS_8internal13scalar_sum_opIddEEKNS5_IS8_KNS5_IS8_KNS5_IS8_KNS5_IS8_KNS5_INS6_17scalar_product_opIddEEKNS_12ArrayWrapperIS2_EESD_EESF_EESF_EESF_EESF_EESF_EEEERKNS_9DenseBaseIT_EE, symObjAddr: 0x8830, symBinAddr: 0x10000BCA0, symSize: 0x88 }
  - { offsetInCU: 0x35C91, offset: 0x35C91, size: 0x8, addend: 0x0, symName: __ZN5Eigen15PlainObjectBaseINS_6MatrixIdLin1ELin1ELi0ELin1ELin1EEEE10resizeLikeINS_13CwiseBinaryOpINS_8internal13scalar_sum_opIddEEKNS5_IS8_KNS5_IS8_KNS5_IS8_KNS5_IS8_KNS5_INS6_17scalar_product_opIddEEKNS_12ArrayWrapperIS2_EESD_EESF_EESF_EESF_EESF_EESF_EEEEvRKNS_9EigenBaseIT_EE, symObjAddr: 0x88B8, symBinAddr: 0x10000BD28, symSize: 0x11C }
  - { offsetInCU: 0x35D25, offset: 0x35D25, size: 0x8, addend: 0x0, symName: __ZN5Eigen15PlainObjectBaseINS_6MatrixIdLin1ELin1ELi0ELin1ELin1EEEE12_set_noaliasINS_13CwiseBinaryOpINS_8internal13scalar_sum_opIddEEKNS5_IS8_KNS5_IS8_KNS5_IS8_KNS5_IS8_KNS5_INS6_17scalar_product_opIddEEKNS_12ArrayWrapperIS2_EESD_EESF_EESF_EESF_EESF_EESF_EEEERS2_RKNS_9DenseBaseIT_EE, symObjAddr: 0x89D4, symBinAddr: 0x10000BE44, symSize: 0x60 }
  - { offsetInCU: 0x35D63, offset: 0x35D63, size: 0x8, addend: 0x0, symName: __ZNK5Eigen13CwiseBinaryOpINS_8internal13scalar_sum_opIddEEKNS0_IS3_KNS0_IS3_KNS0_IS3_KNS0_IS3_KNS0_INS1_17scalar_product_opIddEEKNS_12ArrayWrapperINS_6MatrixIdLin1ELin1ELi0ELin1ELin1EEEEESA_EESC_EESC_EESC_EESC_EESC_E4rowsEv, symObjAddr: 0x8A34, symBinAddr: 0x10000BEA4, symSize: 0x28 }
  - { offsetInCU: 0x35D89, offset: 0x35D89, size: 0x8, addend: 0x0, symName: __ZNK5Eigen13CwiseBinaryOpINS_8internal13scalar_sum_opIddEEKNS0_IS3_KNS0_IS3_KNS0_IS3_KNS0_IS3_KNS0_INS1_17scalar_product_opIddEEKNS_12ArrayWrapperINS_6MatrixIdLin1ELin1ELi0ELin1ELin1EEEEESA_EESC_EESC_EESC_EESC_EESC_E4colsEv, symObjAddr: 0x8A5C, symBinAddr: 0x10000BECC, symSize: 0x28 }
  - { offsetInCU: 0x35DAF, offset: 0x35DAF, size: 0x8, addend: 0x0, symName: __ZN5Eigen8internal10AssignmentINS_6MatrixIdLin1ELin1ELi0ELin1ELin1EEENS_13CwiseBinaryOpINS0_13scalar_sum_opIddEEKNS4_IS6_KNS4_IS6_KNS4_IS6_KNS4_IS6_KNS4_INS0_17scalar_product_opIddEEKNS_12ArrayWrapperIS3_EESB_EESD_EESD_EESD_EESD_EESD_EENS0_9assign_opIddEENS0_11Dense2DenseEvE3runERS3_RKSM_RKSO_, symObjAddr: 0x8AC0, symBinAddr: 0x10000BF30, symSize: 0x40 }
  - { offsetInCU: 0x35DF1, offset: 0x35DF1, size: 0x8, addend: 0x0, symName: __ZN5Eigen8internal27checkTransposeAliasing_implINS_6MatrixIdLin1ELin1ELi0ELin1ELin1EEENS_13CwiseBinaryOpINS0_13scalar_sum_opIddEEKNS4_IS6_KNS4_IS6_KNS4_IS6_KNS4_IS6_KNS4_INS0_17scalar_product_opIddEEKNS_12ArrayWrapperIS3_EESB_EESD_EESD_EESD_EESD_EESD_EELb0EE3runERKS3_RKSM_, symObjAddr: 0x8C50, symBinAddr: 0x10000C0C0, symSize: 0x14 }
  - { offsetInCU: 0x35E1C, offset: 0x35E1C, size: 0x8, addend: 0x0, symName: __ZN5Eigen8internal9evaluatorINS_13CwiseBinaryOpINS0_13scalar_sum_opIddEEKNS2_IS4_KNS2_IS4_KNS2_IS4_KNS2_IS4_KNS2_INS0_17scalar_product_opIddEEKNS_12ArrayWrapperINS_6MatrixIdLin1ELin1ELi0ELin1ELin1EEEEESB_EESD_EESD_EESD_EESD_EESD_EEEC1ERKSM_, symObjAddr: 0x8C64, symBinAddr: 0x10000C0D4, symSize: 0x34 }
  - { offsetInCU: 0x35E55, offset: 0x35E55, size: 0x8, addend: 0x0, symName: __ZN5Eigen8internal31generic_dense_assignment_kernelINS0_9evaluatorINS_6MatrixIdLin1ELin1ELi0ELin1ELin1EEEEENS2_INS_13CwiseBinaryOpINS0_13scalar_sum_opIddEEKNS6_IS8_KNS6_IS8_KNS6_IS8_KNS6_IS8_KNS6_INS0_17scalar_product_opIddEEKNS_12ArrayWrapperIS4_EESD_EESF_EESF_EESF_EESF_EESF_EEEENS0_9assign_opIddEELi0EEC1ERS5_RKSP_RKSR_RS4_, symObjAddr: 0x8D90, symBinAddr: 0x10000C200, symSize: 0x4C }
  - { offsetInCU: 0x35EBB, offset: 0x35EBB, size: 0x8, addend: 0x0, symName: __ZN5Eigen8internal9evaluatorINS_13CwiseBinaryOpINS0_13scalar_sum_opIddEEKNS2_IS4_KNS2_IS4_KNS2_IS4_KNS2_IS4_KNS2_INS0_17scalar_product_opIddEEKNS_12ArrayWrapperINS_6MatrixIdLin1ELin1ELi0ELin1ELin1EEEEESB_EESD_EESD_EESD_EESD_EESD_EEED1Ev, symObjAddr: 0x8E84, symBinAddr: 0x10000C2F4, symSize: 0x2C }
  - { offsetInCU: 0x35EE8, offset: 0x35EE8, size: 0x8, addend: 0x0, symName: __ZN5Eigen8internal9evaluatorINS_13CwiseBinaryOpINS0_13scalar_sum_opIddEEKNS2_IS4_KNS2_IS4_KNS2_IS4_KNS2_IS4_KNS2_INS0_17scalar_product_opIddEEKNS_12ArrayWrapperINS_6MatrixIdLin1ELin1ELi0ELin1ELin1EEEEESB_EESD_EESD_EESD_EESD_EESD_EEEC2ERKSM_, symObjAddr: 0x8EB0, symBinAddr: 0x10000C320, symSize: 0x34 }
  - { offsetInCU: 0x35F21, offset: 0x35F21, size: 0x8, addend: 0x0, symName: __ZN5Eigen8internal16binary_evaluatorINS_13CwiseBinaryOpINS0_13scalar_sum_opIddEEKNS2_IS4_KNS2_IS4_KNS2_IS4_KNS2_IS4_KNS2_INS0_17scalar_product_opIddEEKNS_12ArrayWrapperINS_6MatrixIdLin1ELin1ELi0ELin1ELin1EEEEESB_EESD_EESD_EESD_EESD_EESD_EENS0_10IndexBasedESN_ddEC2ERKSM_, symObjAddr: 0x8EE4, symBinAddr: 0x10000C354, symSize: 0x6C }
  - { offsetInCU: 0x35F5A, offset: 0x35F5A, size: 0x8, addend: 0x0, symName: __ZN5Eigen8internal14evaluator_baseINS_13CwiseBinaryOpINS0_13scalar_sum_opIddEEKNS2_IS4_KNS2_IS4_KNS2_IS4_KNS2_IS4_KNS2_INS0_17scalar_product_opIddEEKNS_12ArrayWrapperINS_6MatrixIdLin1ELin1ELi0ELin1ELin1EEEEESB_EESD_EESD_EESD_EESD_EESD_EEEC2Ev, symObjAddr: 0x8F50, symBinAddr: 0x10000C3C0, symSize: 0x14 }
  - { offsetInCU: 0x35F84, offset: 0x35F84, size: 0x8, addend: 0x0, symName: __ZN5Eigen8internal16binary_evaluatorINS_13CwiseBinaryOpINS0_13scalar_sum_opIddEEKNS2_IS4_KNS2_IS4_KNS2_IS4_KNS2_IS4_KNS2_INS0_17scalar_product_opIddEEKNS_12ArrayWrapperINS_6MatrixIdLin1ELin1ELi0ELin1ELin1EEEEESB_EESD_EESD_EESD_EESD_EESD_EENS0_10IndexBasedESN_ddE4DataC1ERKSM_, symObjAddr: 0x8F64, symBinAddr: 0x10000C3D4, symSize: 0x34 }
  - { offsetInCU: 0x35FBD, offset: 0x35FBD, size: 0x8, addend: 0x0, symName: __ZN5Eigen8internal14evaluator_baseINS_13CwiseBinaryOpINS0_13scalar_sum_opIddEEKNS2_IS4_KNS2_IS4_KNS2_IS4_KNS2_IS4_KNS2_INS0_17scalar_product_opIddEEKNS_12ArrayWrapperINS_6MatrixIdLin1ELin1ELi0ELin1ELin1EEEEESB_EESD_EESD_EESD_EESD_EESD_EEED2Ev, symObjAddr: 0x8F98, symBinAddr: 0x10000C408, symSize: 0x14 }
  - { offsetInCU: 0x35FE7, offset: 0x35FE7, size: 0x8, addend: 0x0, symName: __ZN5Eigen8internal16binary_evaluatorINS_13CwiseBinaryOpINS0_13scalar_sum_opIddEEKNS2_IS4_KNS2_IS4_KNS2_IS4_KNS2_IS4_KNS2_INS0_17scalar_product_opIddEEKNS_12ArrayWrapperINS_6MatrixIdLin1ELin1ELi0ELin1ELin1EEEEESB_EESD_EESD_EESD_EESD_EESD_EENS0_10IndexBasedESN_ddE4DataC2ERKSM_, symObjAddr: 0x8FAC, symBinAddr: 0x10000C41C, symSize: 0xB0 }
  - { offsetInCU: 0x36020, offset: 0x36020, size: 0x8, addend: 0x0, symName: __ZNK5Eigen13CwiseBinaryOpINS_8internal13scalar_sum_opIddEEKNS0_IS3_KNS0_IS3_KNS0_IS3_KNS0_IS3_KNS0_INS1_17scalar_product_opIddEEKNS_12ArrayWrapperINS_6MatrixIdLin1ELin1ELi0ELin1ELin1EEEEESA_EESC_EESC_EESC_EESC_EESC_E7functorEv, symObjAddr: 0x905C, symBinAddr: 0x10000C4CC, symSize: 0x18 }
  - { offsetInCU: 0x36046, offset: 0x36046, size: 0x8, addend: 0x0, symName: __ZNK5Eigen13CwiseBinaryOpINS_8internal13scalar_sum_opIddEEKNS0_IS3_KNS0_IS3_KNS0_IS3_KNS0_IS3_KNS0_INS1_17scalar_product_opIddEEKNS_12ArrayWrapperINS_6MatrixIdLin1ELin1ELi0ELin1ELin1EEEEESA_EESC_EESC_EESC_EESC_EESC_E3lhsEv, symObjAddr: 0x9074, symBinAddr: 0x10000C4E4, symSize: 0x18 }
  - { offsetInCU: 0x3606C, offset: 0x3606C, size: 0x8, addend: 0x0, symName: __ZN5Eigen8internal9evaluatorIKNS_13CwiseBinaryOpINS0_13scalar_sum_opIddEEKNS2_IS4_KNS2_IS4_KNS2_IS4_KNS2_INS0_17scalar_product_opIddEEKNS_12ArrayWrapperINS_6MatrixIdLin1ELin1ELi0ELin1ELin1EEEEESB_EESD_EESD_EESD_EESD_EEEC1ERSL_, symObjAddr: 0x908C, symBinAddr: 0x10000C4FC, symSize: 0x34 }
  - { offsetInCU: 0x360A4, offset: 0x360A4, size: 0x8, addend: 0x0, symName: __ZNK5Eigen13CwiseBinaryOpINS_8internal13scalar_sum_opIddEEKNS0_IS3_KNS0_IS3_KNS0_IS3_KNS0_IS3_KNS0_INS1_17scalar_product_opIddEEKNS_12ArrayWrapperINS_6MatrixIdLin1ELin1ELi0ELin1ELin1EEEEESA_EESC_EESC_EESC_EESC_EESC_E3rhsEv, symObjAddr: 0x90C0, symBinAddr: 0x10000C530, symSize: 0x18 }
  - { offsetInCU: 0x360CA, offset: 0x360CA, size: 0x8, addend: 0x0, symName: __ZN5Eigen8internal9evaluatorIKNS_13CwiseBinaryOpINS0_17scalar_product_opIddEEKNS_12ArrayWrapperINS_6MatrixIdLin1ELin1ELi0ELin1ELin1EEEEES9_EEEC1ERSB_, symObjAddr: 0x90D8, symBinAddr: 0x10000C548, symSize: 0x34 }
  - { offsetInCU: 0x36102, offset: 0x36102, size: 0x8, addend: 0x0, symName: __ZN5Eigen8internal9evaluatorIKNS_13CwiseBinaryOpINS0_13scalar_sum_opIddEEKNS2_IS4_KNS2_IS4_KNS2_IS4_KNS2_INS0_17scalar_product_opIddEEKNS_12ArrayWrapperINS_6MatrixIdLin1ELin1ELi0ELin1ELin1EEEEESB_EESD_EESD_EESD_EESD_EEED1Ev, symObjAddr: 0x910C, symBinAddr: 0x10000C57C, symSize: 0x2C }
  - { offsetInCU: 0x3612E, offset: 0x3612E, size: 0x8, addend: 0x0, symName: __ZN5Eigen8internal9evaluatorIKNS_13CwiseBinaryOpINS0_13scalar_sum_opIddEEKNS2_IS4_KNS2_IS4_KNS2_IS4_KNS2_INS0_17scalar_product_opIddEEKNS_12ArrayWrapperINS_6MatrixIdLin1ELin1ELi0ELin1ELin1EEEEESB_EESD_EESD_EESD_EESD_EEEC2ERSL_, symObjAddr: 0x9138, symBinAddr: 0x10000C5A8, symSize: 0x34 }
  - { offsetInCU: 0x36166, offset: 0x36166, size: 0x8, addend: 0x0, symName: __ZN5Eigen8internal9evaluatorINS_13CwiseBinaryOpINS0_13scalar_sum_opIddEEKNS2_IS4_KNS2_IS4_KNS2_IS4_KNS2_INS0_17scalar_product_opIddEEKNS_12ArrayWrapperINS_6MatrixIdLin1ELin1ELi0ELin1ELin1EEEEESB_EESD_EESD_EESD_EESD_EEEC2ERKSK_, symObjAddr: 0x916C, symBinAddr: 0x10000C5DC, symSize: 0x34 }
  - { offsetInCU: 0x3619F, offset: 0x3619F, size: 0x8, addend: 0x0, symName: __ZN5Eigen8internal16binary_evaluatorINS_13CwiseBinaryOpINS0_13scalar_sum_opIddEEKNS2_IS4_KNS2_IS4_KNS2_IS4_KNS2_INS0_17scalar_product_opIddEEKNS_12ArrayWrapperINS_6MatrixIdLin1ELin1ELi0ELin1ELin1EEEEESB_EESD_EESD_EESD_EESD_EENS0_10IndexBasedESL_ddEC2ERKSK_, symObjAddr: 0x91A0, symBinAddr: 0x10000C610, symSize: 0x6C }
  - { offsetInCU: 0x361D8, offset: 0x361D8, size: 0x8, addend: 0x0, symName: __ZN5Eigen8internal14evaluator_baseINS_13CwiseBinaryOpINS0_13scalar_sum_opIddEEKNS2_IS4_KNS2_IS4_KNS2_IS4_KNS2_INS0_17scalar_product_opIddEEKNS_12ArrayWrapperINS_6MatrixIdLin1ELin1ELi0ELin1ELin1EEEEESB_EESD_EESD_EESD_EESD_EEEC2Ev, symObjAddr: 0x920C, symBinAddr: 0x10000C67C, symSize: 0x14 }
  - { offsetInCU: 0x36202, offset: 0x36202, size: 0x8, addend: 0x0, symName: __ZN5Eigen8internal16binary_evaluatorINS_13CwiseBinaryOpINS0_13scalar_sum_opIddEEKNS2_IS4_KNS2_IS4_KNS2_IS4_KNS2_INS0_17scalar_product_opIddEEKNS_12ArrayWrapperINS_6MatrixIdLin1ELin1ELi0ELin1ELin1EEEEESB_EESD_EESD_EESD_EESD_EENS0_10IndexBasedESL_ddE4DataC1ERKSK_, symObjAddr: 0x9220, symBinAddr: 0x10000C690, symSize: 0x34 }
  - { offsetInCU: 0x3623B, offset: 0x3623B, size: 0x8, addend: 0x0, symName: __ZN5Eigen8internal14evaluator_baseINS_13CwiseBinaryOpINS0_13scalar_sum_opIddEEKNS2_IS4_KNS2_IS4_KNS2_IS4_KNS2_INS0_17scalar_product_opIddEEKNS_12ArrayWrapperINS_6MatrixIdLin1ELin1ELi0ELin1ELin1EEEEESB_EESD_EESD_EESD_EESD_EEED2Ev, symObjAddr: 0x9254, symBinAddr: 0x10000C6C4, symSize: 0x14 }
  - { offsetInCU: 0x36265, offset: 0x36265, size: 0x8, addend: 0x0, symName: __ZN5Eigen8internal16binary_evaluatorINS_13CwiseBinaryOpINS0_13scalar_sum_opIddEEKNS2_IS4_KNS2_IS4_KNS2_IS4_KNS2_INS0_17scalar_product_opIddEEKNS_12ArrayWrapperINS_6MatrixIdLin1ELin1ELi0ELin1ELin1EEEEESB_EESD_EESD_EESD_EESD_EENS0_10IndexBasedESL_ddE4DataC2ERKSK_, symObjAddr: 0x9268, symBinAddr: 0x10000C6D8, symSize: 0xB0 }
  - { offsetInCU: 0x3629E, offset: 0x3629E, size: 0x8, addend: 0x0, symName: __ZNK5Eigen13CwiseBinaryOpINS_8internal13scalar_sum_opIddEEKNS0_IS3_KNS0_IS3_KNS0_IS3_KNS0_INS1_17scalar_product_opIddEEKNS_12ArrayWrapperINS_6MatrixIdLin1ELin1ELi0ELin1ELin1EEEEESA_EESC_EESC_EESC_EESC_E7functorEv, symObjAddr: 0x9318, symBinAddr: 0x10000C788, symSize: 0x18 }
  - { offsetInCU: 0x362C4, offset: 0x362C4, size: 0x8, addend: 0x0, symName: __ZNK5Eigen13CwiseBinaryOpINS_8internal13scalar_sum_opIddEEKNS0_IS3_KNS0_IS3_KNS0_IS3_KNS0_INS1_17scalar_product_opIddEEKNS_12ArrayWrapperINS_6MatrixIdLin1ELin1ELi0ELin1ELin1EEEEESA_EESC_EESC_EESC_EESC_E3lhsEv, symObjAddr: 0x9330, symBinAddr: 0x10000C7A0, symSize: 0x18 }
  - { offsetInCU: 0x362EA, offset: 0x362EA, size: 0x8, addend: 0x0, symName: __ZN5Eigen8internal9evaluatorIKNS_13CwiseBinaryOpINS0_13scalar_sum_opIddEEKNS2_IS4_KNS2_IS4_KNS2_INS0_17scalar_product_opIddEEKNS_12ArrayWrapperINS_6MatrixIdLin1ELin1ELi0ELin1ELin1EEEEESB_EESD_EESD_EESD_EEEC1ERSJ_, symObjAddr: 0x9348, symBinAddr: 0x10000C7B8, symSize: 0x34 }
  - { offsetInCU: 0x36322, offset: 0x36322, size: 0x8, addend: 0x0, symName: __ZNK5Eigen13CwiseBinaryOpINS_8internal13scalar_sum_opIddEEKNS0_IS3_KNS0_IS3_KNS0_IS3_KNS0_INS1_17scalar_product_opIddEEKNS_12ArrayWrapperINS_6MatrixIdLin1ELin1ELi0ELin1ELin1EEEEESA_EESC_EESC_EESC_EESC_E3rhsEv, symObjAddr: 0x937C, symBinAddr: 0x10000C7EC, symSize: 0x18 }
  - { offsetInCU: 0x36348, offset: 0x36348, size: 0x8, addend: 0x0, symName: __ZN5Eigen8internal9evaluatorIKNS_13CwiseBinaryOpINS0_13scalar_sum_opIddEEKNS2_IS4_KNS2_IS4_KNS2_INS0_17scalar_product_opIddEEKNS_12ArrayWrapperINS_6MatrixIdLin1ELin1ELi0ELin1ELin1EEEEESB_EESD_EESD_EESD_EEED1Ev, symObjAddr: 0x9394, symBinAddr: 0x10000C804, symSize: 0x2C }
  - { offsetInCU: 0x36374, offset: 0x36374, size: 0x8, addend: 0x0, symName: __ZN5Eigen8internal9evaluatorIKNS_13CwiseBinaryOpINS0_13scalar_sum_opIddEEKNS2_IS4_KNS2_IS4_KNS2_INS0_17scalar_product_opIddEEKNS_12ArrayWrapperINS_6MatrixIdLin1ELin1ELi0ELin1ELin1EEEEESB_EESD_EESD_EESD_EEEC2ERSJ_, symObjAddr: 0x93C0, symBinAddr: 0x10000C830, symSize: 0x34 }
  - { offsetInCU: 0x363AC, offset: 0x363AC, size: 0x8, addend: 0x0, symName: __ZN5Eigen8internal9evaluatorINS_13CwiseBinaryOpINS0_13scalar_sum_opIddEEKNS2_IS4_KNS2_IS4_KNS2_INS0_17scalar_product_opIddEEKNS_12ArrayWrapperINS_6MatrixIdLin1ELin1ELi0ELin1ELin1EEEEESB_EESD_EESD_EESD_EEEC2ERKSI_, symObjAddr: 0x93F4, symBinAddr: 0x10000C864, symSize: 0x34 }
  - { offsetInCU: 0x363E5, offset: 0x363E5, size: 0x8, addend: 0x0, symName: __ZN5Eigen8internal16binary_evaluatorINS_13CwiseBinaryOpINS0_13scalar_sum_opIddEEKNS2_IS4_KNS2_IS4_KNS2_INS0_17scalar_product_opIddEEKNS_12ArrayWrapperINS_6MatrixIdLin1ELin1ELi0ELin1ELin1EEEEESB_EESD_EESD_EESD_EENS0_10IndexBasedESJ_ddEC2ERKSI_, symObjAddr: 0x9428, symBinAddr: 0x10000C898, symSize: 0x6C }
  - { offsetInCU: 0x3641E, offset: 0x3641E, size: 0x8, addend: 0x0, symName: __ZN5Eigen8internal14evaluator_baseINS_13CwiseBinaryOpINS0_13scalar_sum_opIddEEKNS2_IS4_KNS2_IS4_KNS2_INS0_17scalar_product_opIddEEKNS_12ArrayWrapperINS_6MatrixIdLin1ELin1ELi0ELin1ELin1EEEEESB_EESD_EESD_EESD_EEEC2Ev, symObjAddr: 0x9494, symBinAddr: 0x10000C904, symSize: 0x14 }
  - { offsetInCU: 0x36448, offset: 0x36448, size: 0x8, addend: 0x0, symName: __ZN5Eigen8internal16binary_evaluatorINS_13CwiseBinaryOpINS0_13scalar_sum_opIddEEKNS2_IS4_KNS2_IS4_KNS2_INS0_17scalar_product_opIddEEKNS_12ArrayWrapperINS_6MatrixIdLin1ELin1ELi0ELin1ELin1EEEEESB_EESD_EESD_EESD_EENS0_10IndexBasedESJ_ddE4DataC1ERKSI_, symObjAddr: 0x94A8, symBinAddr: 0x10000C918, symSize: 0x34 }
  - { offsetInCU: 0x36481, offset: 0x36481, size: 0x8, addend: 0x0, symName: __ZN5Eigen8internal14evaluator_baseINS_13CwiseBinaryOpINS0_13scalar_sum_opIddEEKNS2_IS4_KNS2_IS4_KNS2_INS0_17scalar_product_opIddEEKNS_12ArrayWrapperINS_6MatrixIdLin1ELin1ELi0ELin1ELin1EEEEESB_EESD_EESD_EESD_EEED2Ev, symObjAddr: 0x94DC, symBinAddr: 0x10000C94C, symSize: 0x14 }
  - { offsetInCU: 0x364AB, offset: 0x364AB, size: 0x8, addend: 0x0, symName: __ZN5Eigen8internal16binary_evaluatorINS_13CwiseBinaryOpINS0_13scalar_sum_opIddEEKNS2_IS4_KNS2_IS4_KNS2_INS0_17scalar_product_opIddEEKNS_12ArrayWrapperINS_6MatrixIdLin1ELin1ELi0ELin1ELin1EEEEESB_EESD_EESD_EESD_EENS0_10IndexBasedESJ_ddE4DataC2ERKSI_, symObjAddr: 0x94F0, symBinAddr: 0x10000C960, symSize: 0xB0 }
  - { offsetInCU: 0x364E4, offset: 0x364E4, size: 0x8, addend: 0x0, symName: __ZNK5Eigen13CwiseBinaryOpINS_8internal13scalar_sum_opIddEEKNS0_IS3_KNS0_IS3_KNS0_INS1_17scalar_product_opIddEEKNS_12ArrayWrapperINS_6MatrixIdLin1ELin1ELi0ELin1ELin1EEEEESA_EESC_EESC_EESC_E7functorEv, symObjAddr: 0x95A0, symBinAddr: 0x10000CA10, symSize: 0x18 }
  - { offsetInCU: 0x3650A, offset: 0x3650A, size: 0x8, addend: 0x0, symName: __ZNK5Eigen13CwiseBinaryOpINS_8internal13scalar_sum_opIddEEKNS0_IS3_KNS0_IS3_KNS0_INS1_17scalar_product_opIddEEKNS_12ArrayWrapperINS_6MatrixIdLin1ELin1ELi0ELin1ELin1EEEEESA_EESC_EESC_EESC_E3lhsEv, symObjAddr: 0x95B8, symBinAddr: 0x10000CA28, symSize: 0x18 }
  - { offsetInCU: 0x36530, offset: 0x36530, size: 0x8, addend: 0x0, symName: __ZN5Eigen8internal9evaluatorIKNS_13CwiseBinaryOpINS0_13scalar_sum_opIddEEKNS2_IS4_KNS2_INS0_17scalar_product_opIddEEKNS_12ArrayWrapperINS_6MatrixIdLin1ELin1ELi0ELin1ELin1EEEEESB_EESD_EESD_EEEC1ERSH_, symObjAddr: 0x95D0, symBinAddr: 0x10000CA40, symSize: 0x34 }
  - { offsetInCU: 0x36568, offset: 0x36568, size: 0x8, addend: 0x0, symName: __ZNK5Eigen13CwiseBinaryOpINS_8internal13scalar_sum_opIddEEKNS0_IS3_KNS0_IS3_KNS0_INS1_17scalar_product_opIddEEKNS_12ArrayWrapperINS_6MatrixIdLin1ELin1ELi0ELin1ELin1EEEEESA_EESC_EESC_EESC_E3rhsEv, symObjAddr: 0x9604, symBinAddr: 0x10000CA74, symSize: 0x18 }
  - { offsetInCU: 0x3658E, offset: 0x3658E, size: 0x8, addend: 0x0, symName: __ZN5Eigen8internal9evaluatorIKNS_13CwiseBinaryOpINS0_13scalar_sum_opIddEEKNS2_IS4_KNS2_INS0_17scalar_product_opIddEEKNS_12ArrayWrapperINS_6MatrixIdLin1ELin1ELi0ELin1ELin1EEEEESB_EESD_EESD_EEED1Ev, symObjAddr: 0x961C, symBinAddr: 0x10000CA8C, symSize: 0x2C }
  - { offsetInCU: 0x365BA, offset: 0x365BA, size: 0x8, addend: 0x0, symName: __ZN5Eigen8internal9evaluatorIKNS_13CwiseBinaryOpINS0_13scalar_sum_opIddEEKNS2_IS4_KNS2_INS0_17scalar_product_opIddEEKNS_12ArrayWrapperINS_6MatrixIdLin1ELin1ELi0ELin1ELin1EEEEESB_EESD_EESD_EEEC2ERSH_, symObjAddr: 0x9648, symBinAddr: 0x10000CAB8, symSize: 0x34 }
  - { offsetInCU: 0x365F2, offset: 0x365F2, size: 0x8, addend: 0x0, symName: __ZN5Eigen8internal9evaluatorINS_13CwiseBinaryOpINS0_13scalar_sum_opIddEEKNS2_IS4_KNS2_INS0_17scalar_product_opIddEEKNS_12ArrayWrapperINS_6MatrixIdLin1ELin1ELi0ELin1ELin1EEEEESB_EESD_EESD_EEEC2ERKSG_, symObjAddr: 0x967C, symBinAddr: 0x10000CAEC, symSize: 0x34 }
  - { offsetInCU: 0x3662B, offset: 0x3662B, size: 0x8, addend: 0x0, symName: __ZN5Eigen8internal16binary_evaluatorINS_13CwiseBinaryOpINS0_13scalar_sum_opIddEEKNS2_IS4_KNS2_INS0_17scalar_product_opIddEEKNS_12ArrayWrapperINS_6MatrixIdLin1ELin1ELi0ELin1ELin1EEEEESB_EESD_EESD_EENS0_10IndexBasedESH_ddEC2ERKSG_, symObjAddr: 0x96B0, symBinAddr: 0x10000CB20, symSize: 0x6C }
  - { offsetInCU: 0x36664, offset: 0x36664, size: 0x8, addend: 0x0, symName: __ZN5Eigen8internal14evaluator_baseINS_13CwiseBinaryOpINS0_13scalar_sum_opIddEEKNS2_IS4_KNS2_INS0_17scalar_product_opIddEEKNS_12ArrayWrapperINS_6MatrixIdLin1ELin1ELi0ELin1ELin1EEEEESB_EESD_EESD_EEEC2Ev, symObjAddr: 0x971C, symBinAddr: 0x10000CB8C, symSize: 0x14 }
  - { offsetInCU: 0x3668E, offset: 0x3668E, size: 0x8, addend: 0x0, symName: __ZN5Eigen8internal16binary_evaluatorINS_13CwiseBinaryOpINS0_13scalar_sum_opIddEEKNS2_IS4_KNS2_INS0_17scalar_product_opIddEEKNS_12ArrayWrapperINS_6MatrixIdLin1ELin1ELi0ELin1ELin1EEEEESB_EESD_EESD_EENS0_10IndexBasedESH_ddE4DataC1ERKSG_, symObjAddr: 0x9730, symBinAddr: 0x10000CBA0, symSize: 0x34 }
  - { offsetInCU: 0x366C7, offset: 0x366C7, size: 0x8, addend: 0x0, symName: __ZN5Eigen8internal14evaluator_baseINS_13CwiseBinaryOpINS0_13scalar_sum_opIddEEKNS2_IS4_KNS2_INS0_17scalar_product_opIddEEKNS_12ArrayWrapperINS_6MatrixIdLin1ELin1ELi0ELin1ELin1EEEEESB_EESD_EESD_EEED2Ev, symObjAddr: 0x9764, symBinAddr: 0x10000CBD4, symSize: 0x14 }
  - { offsetInCU: 0x366F1, offset: 0x366F1, size: 0x8, addend: 0x0, symName: __ZN5Eigen8internal16binary_evaluatorINS_13CwiseBinaryOpINS0_13scalar_sum_opIddEEKNS2_IS4_KNS2_INS0_17scalar_product_opIddEEKNS_12ArrayWrapperINS_6MatrixIdLin1ELin1ELi0ELin1ELin1EEEEESB_EESD_EESD_EENS0_10IndexBasedESH_ddE4DataC2ERKSG_, symObjAddr: 0x9778, symBinAddr: 0x10000CBE8, symSize: 0xB0 }
  - { offsetInCU: 0x3672A, offset: 0x3672A, size: 0x8, addend: 0x0, symName: __ZNK5Eigen13CwiseBinaryOpINS_8internal13scalar_sum_opIddEEKNS0_IS3_KNS0_INS1_17scalar_product_opIddEEKNS_12ArrayWrapperINS_6MatrixIdLin1ELin1ELi0ELin1ELin1EEEEESA_EESC_EESC_E7functorEv, symObjAddr: 0x9828, symBinAddr: 0x10000CC98, symSize: 0x18 }
  - { offsetInCU: 0x36750, offset: 0x36750, size: 0x8, addend: 0x0, symName: __ZNK5Eigen13CwiseBinaryOpINS_8internal13scalar_sum_opIddEEKNS0_IS3_KNS0_INS1_17scalar_product_opIddEEKNS_12ArrayWrapperINS_6MatrixIdLin1ELin1ELi0ELin1ELin1EEEEESA_EESC_EESC_E3lhsEv, symObjAddr: 0x9840, symBinAddr: 0x10000CCB0, symSize: 0x18 }
  - { offsetInCU: 0x36776, offset: 0x36776, size: 0x8, addend: 0x0, symName: __ZN5Eigen8internal9evaluatorIKNS_13CwiseBinaryOpINS0_13scalar_sum_opIddEEKNS2_INS0_17scalar_product_opIddEEKNS_12ArrayWrapperINS_6MatrixIdLin1ELin1ELi0ELin1ELin1EEEEESB_EESD_EEEC1ERSF_, symObjAddr: 0x9858, symBinAddr: 0x10000CCC8, symSize: 0x34 }
  - { offsetInCU: 0x367AE, offset: 0x367AE, size: 0x8, addend: 0x0, symName: __ZNK5Eigen13CwiseBinaryOpINS_8internal13scalar_sum_opIddEEKNS0_IS3_KNS0_INS1_17scalar_product_opIddEEKNS_12ArrayWrapperINS_6MatrixIdLin1ELin1ELi0ELin1ELin1EEEEESA_EESC_EESC_E3rhsEv, symObjAddr: 0x988C, symBinAddr: 0x10000CCFC, symSize: 0x18 }
  - { offsetInCU: 0x367D4, offset: 0x367D4, size: 0x8, addend: 0x0, symName: __ZN5Eigen8internal9evaluatorIKNS_13CwiseBinaryOpINS0_13scalar_sum_opIddEEKNS2_INS0_17scalar_product_opIddEEKNS_12ArrayWrapperINS_6MatrixIdLin1ELin1ELi0ELin1ELin1EEEEESB_EESD_EEED1Ev, symObjAddr: 0x98A4, symBinAddr: 0x10000CD14, symSize: 0x2C }
  - { offsetInCU: 0x36800, offset: 0x36800, size: 0x8, addend: 0x0, symName: __ZN5Eigen8internal9evaluatorIKNS_13CwiseBinaryOpINS0_13scalar_sum_opIddEEKNS2_INS0_17scalar_product_opIddEEKNS_12ArrayWrapperINS_6MatrixIdLin1ELin1ELi0ELin1ELin1EEEEESB_EESD_EEEC2ERSF_, symObjAddr: 0x98D0, symBinAddr: 0x10000CD40, symSize: 0x34 }
  - { offsetInCU: 0x36838, offset: 0x36838, size: 0x8, addend: 0x0, symName: __ZN5Eigen8internal9evaluatorINS_13CwiseBinaryOpINS0_13scalar_sum_opIddEEKNS2_INS0_17scalar_product_opIddEEKNS_12ArrayWrapperINS_6MatrixIdLin1ELin1ELi0ELin1ELin1EEEEESB_EESD_EEEC2ERKSE_, symObjAddr: 0x9904, symBinAddr: 0x10000CD74, symSize: 0x34 }
  - { offsetInCU: 0x36871, offset: 0x36871, size: 0x8, addend: 0x0, symName: __ZN5Eigen8internal16binary_evaluatorINS_13CwiseBinaryOpINS0_13scalar_sum_opIddEEKNS2_INS0_17scalar_product_opIddEEKNS_12ArrayWrapperINS_6MatrixIdLin1ELin1ELi0ELin1ELin1EEEEESB_EESD_EENS0_10IndexBasedESF_ddEC2ERKSE_, symObjAddr: 0x9938, symBinAddr: 0x10000CDA8, symSize: 0x6C }
  - { offsetInCU: 0x368AA, offset: 0x368AA, size: 0x8, addend: 0x0, symName: __ZN5Eigen8internal14evaluator_baseINS_13CwiseBinaryOpINS0_13scalar_sum_opIddEEKNS2_INS0_17scalar_product_opIddEEKNS_12ArrayWrapperINS_6MatrixIdLin1ELin1ELi0ELin1ELin1EEEEESB_EESD_EEEC2Ev, symObjAddr: 0x99A4, symBinAddr: 0x10000CE14, symSize: 0x14 }
  - { offsetInCU: 0x368D4, offset: 0x368D4, size: 0x8, addend: 0x0, symName: __ZN5Eigen8internal16binary_evaluatorINS_13CwiseBinaryOpINS0_13scalar_sum_opIddEEKNS2_INS0_17scalar_product_opIddEEKNS_12ArrayWrapperINS_6MatrixIdLin1ELin1ELi0ELin1ELin1EEEEESB_EESD_EENS0_10IndexBasedESF_ddE4DataC1ERKSE_, symObjAddr: 0x99B8, symBinAddr: 0x10000CE28, symSize: 0x34 }
  - { offsetInCU: 0x3690D, offset: 0x3690D, size: 0x8, addend: 0x0, symName: __ZN5Eigen8internal14evaluator_baseINS_13CwiseBinaryOpINS0_13scalar_sum_opIddEEKNS2_INS0_17scalar_product_opIddEEKNS_12ArrayWrapperINS_6MatrixIdLin1ELin1ELi0ELin1ELin1EEEEESB_EESD_EEED2Ev, symObjAddr: 0x99EC, symBinAddr: 0x10000CE5C, symSize: 0x14 }
  - { offsetInCU: 0x36937, offset: 0x36937, size: 0x8, addend: 0x0, symName: __ZN5Eigen8internal16binary_evaluatorINS_13CwiseBinaryOpINS0_13scalar_sum_opIddEEKNS2_INS0_17scalar_product_opIddEEKNS_12ArrayWrapperINS_6MatrixIdLin1ELin1ELi0ELin1ELin1EEEEESB_EESD_EENS0_10IndexBasedESF_ddE4DataC2ERKSE_, symObjAddr: 0x9A00, symBinAddr: 0x10000CE70, symSize: 0xB0 }
  - { offsetInCU: 0x36970, offset: 0x36970, size: 0x8, addend: 0x0, symName: __ZNK5Eigen13CwiseBinaryOpINS_8internal13scalar_sum_opIddEEKNS0_INS1_17scalar_product_opIddEEKNS_12ArrayWrapperINS_6MatrixIdLin1ELin1ELi0ELin1ELin1EEEEESA_EESC_E7functorEv, symObjAddr: 0x9AB0, symBinAddr: 0x10000CF20, symSize: 0x18 }
  - { offsetInCU: 0x36996, offset: 0x36996, size: 0x8, addend: 0x0, symName: __ZNK5Eigen13CwiseBinaryOpINS_8internal13scalar_sum_opIddEEKNS0_INS1_17scalar_product_opIddEEKNS_12ArrayWrapperINS_6MatrixIdLin1ELin1ELi0ELin1ELin1EEEEESA_EESC_E3lhsEv, symObjAddr: 0x9AC8, symBinAddr: 0x10000CF38, symSize: 0x18 }
  - { offsetInCU: 0x369BC, offset: 0x369BC, size: 0x8, addend: 0x0, symName: __ZNK5Eigen13CwiseBinaryOpINS_8internal13scalar_sum_opIddEEKNS0_INS1_17scalar_product_opIddEEKNS_12ArrayWrapperINS_6MatrixIdLin1ELin1ELi0ELin1ELin1EEEEESA_EESC_E3rhsEv, symObjAddr: 0x9AE0, symBinAddr: 0x10000CF50, symSize: 0x18 }
  - { offsetInCU: 0x369E2, offset: 0x369E2, size: 0x8, addend: 0x0, symName: __ZN5Eigen8internal9evaluatorIKNS_13CwiseBinaryOpINS0_17scalar_product_opIddEEKNS_12ArrayWrapperINS_6MatrixIdLin1ELin1ELi0ELin1ELin1EEEEES9_EEED1Ev, symObjAddr: 0x9AF8, symBinAddr: 0x10000CF68, symSize: 0x2C }
  - { offsetInCU: 0x36A0E, offset: 0x36A0E, size: 0x8, addend: 0x0, symName: __ZN5Eigen8internal9evaluatorIKNS_13CwiseBinaryOpINS0_17scalar_product_opIddEEKNS_12ArrayWrapperINS_6MatrixIdLin1ELin1ELi0ELin1ELin1EEEEES9_EEED2Ev, symObjAddr: 0x9B24, symBinAddr: 0x10000CF94, symSize: 0x2C }
  - { offsetInCU: 0x36A3A, offset: 0x36A3A, size: 0x8, addend: 0x0, symName: __ZN5Eigen8internal9evaluatorINS_13CwiseBinaryOpINS0_17scalar_product_opIddEEKNS_12ArrayWrapperINS_6MatrixIdLin1ELin1ELi0ELin1ELin1EEEEES9_EEED2Ev, symObjAddr: 0x9B50, symBinAddr: 0x10000CFC0, symSize: 0x2C }
  - { offsetInCU: 0x36A67, offset: 0x36A67, size: 0x8, addend: 0x0, symName: __ZN5Eigen8internal16binary_evaluatorINS_13CwiseBinaryOpINS0_17scalar_product_opIddEEKNS_12ArrayWrapperINS_6MatrixIdLin1ELin1ELi0ELin1ELin1EEEEES9_EENS0_10IndexBasedESB_ddED2Ev, symObjAddr: 0x9B7C, symBinAddr: 0x10000CFEC, symSize: 0x64 }
  - { offsetInCU: 0x36A93, offset: 0x36A93, size: 0x8, addend: 0x0, symName: __ZN5Eigen8internal16binary_evaluatorINS_13CwiseBinaryOpINS0_17scalar_product_opIddEEKNS_12ArrayWrapperINS_6MatrixIdLin1ELin1ELi0ELin1ELin1EEEEES9_EENS0_10IndexBasedESB_ddE4DataD1Ev, symObjAddr: 0x9BE0, symBinAddr: 0x10000D050, symSize: 0x2C }
  - { offsetInCU: 0x36AC0, offset: 0x36AC0, size: 0x8, addend: 0x0, symName: __ZN5Eigen8internal14evaluator_baseINS_13CwiseBinaryOpINS0_17scalar_product_opIddEEKNS_12ArrayWrapperINS_6MatrixIdLin1ELin1ELi0ELin1ELin1EEEEES9_EEED2Ev, symObjAddr: 0x9C0C, symBinAddr: 0x10000D07C, symSize: 0x14 }
  - { offsetInCU: 0x36AEA, offset: 0x36AEA, size: 0x8, addend: 0x0, symName: __ZN5Eigen8internal16binary_evaluatorINS_13CwiseBinaryOpINS0_17scalar_product_opIddEEKNS_12ArrayWrapperINS_6MatrixIdLin1ELin1ELi0ELin1ELin1EEEEES9_EENS0_10IndexBasedESB_ddE4DataD2Ev, symObjAddr: 0x9C20, symBinAddr: 0x10000D090, symSize: 0x6C }
  - { offsetInCU: 0x36B17, offset: 0x36B17, size: 0x8, addend: 0x0, symName: __ZN5Eigen8internal9evaluatorIKNS_12ArrayWrapperINS_6MatrixIdLin1ELin1ELi0ELin1ELin1EEEEEED1Ev, symObjAddr: 0x9C8C, symBinAddr: 0x10000D0FC, symSize: 0x2C }
  - { offsetInCU: 0x36B43, offset: 0x36B43, size: 0x8, addend: 0x0, symName: __ZN5Eigen8internal9evaluatorIKNS_12ArrayWrapperINS_6MatrixIdLin1ELin1ELi0ELin1ELin1EEEEEED2Ev, symObjAddr: 0x9CB8, symBinAddr: 0x10000D128, symSize: 0x2C }
  - { offsetInCU: 0x36B6F, offset: 0x36B6F, size: 0x8, addend: 0x0, symName: __ZN5Eigen8internal9evaluatorINS_12ArrayWrapperINS_6MatrixIdLin1ELin1ELi0ELin1ELin1EEEEEED2Ev, symObjAddr: 0x9CE4, symBinAddr: 0x10000D154, symSize: 0x2C }
  - { offsetInCU: 0x36B9B, offset: 0x36B9B, size: 0x8, addend: 0x0, symName: __ZN5Eigen8internal15unary_evaluatorINS_12ArrayWrapperINS_6MatrixIdLin1ELin1ELi0ELin1ELin1EEEEENS0_10IndexBasedEdED2Ev, symObjAddr: 0x9D10, symBinAddr: 0x10000D180, symSize: 0x2C }
  - { offsetInCU: 0x36BC8, offset: 0x36BC8, size: 0x8, addend: 0x0, symName: __ZN5Eigen8internal22evaluator_wrapper_baseINS_12ArrayWrapperINS_6MatrixIdLin1ELin1ELi0ELin1ELin1EEEEEED2Ev, symObjAddr: 0x9D3C, symBinAddr: 0x10000D1AC, symSize: 0x64 }
  - { offsetInCU: 0x36BF5, offset: 0x36BF5, size: 0x8, addend: 0x0, symName: __ZN5Eigen8internal14evaluator_baseINS_12ArrayWrapperINS_6MatrixIdLin1ELin1ELi0ELin1ELin1EEEEEED2Ev, symObjAddr: 0x9DA0, symBinAddr: 0x10000D210, symSize: 0x14 }
  - { offsetInCU: 0x36C1F, offset: 0x36C1F, size: 0x8, addend: 0x0, symName: __ZN5Eigen8internal9evaluatorIKNS_13CwiseBinaryOpINS0_13scalar_sum_opIddEEKNS2_INS0_17scalar_product_opIddEEKNS_12ArrayWrapperINS_6MatrixIdLin1ELin1ELi0ELin1ELin1EEEEESB_EESD_EEED2Ev, symObjAddr: 0x9DB4, symBinAddr: 0x10000D224, symSize: 0x2C }
  - { offsetInCU: 0x36C4B, offset: 0x36C4B, size: 0x8, addend: 0x0, symName: __ZN5Eigen8internal9evaluatorINS_13CwiseBinaryOpINS0_13scalar_sum_opIddEEKNS2_INS0_17scalar_product_opIddEEKNS_12ArrayWrapperINS_6MatrixIdLin1ELin1ELi0ELin1ELin1EEEEESB_EESD_EEED2Ev, symObjAddr: 0x9DE0, symBinAddr: 0x10000D250, symSize: 0x2C }
  - { offsetInCU: 0x36C78, offset: 0x36C78, size: 0x8, addend: 0x0, symName: __ZN5Eigen8internal16binary_evaluatorINS_13CwiseBinaryOpINS0_13scalar_sum_opIddEEKNS2_INS0_17scalar_product_opIddEEKNS_12ArrayWrapperINS_6MatrixIdLin1ELin1ELi0ELin1ELin1EEEEESB_EESD_EENS0_10IndexBasedESF_ddED2Ev, symObjAddr: 0x9E0C, symBinAddr: 0x10000D27C, symSize: 0x5C }
  - { offsetInCU: 0x36CA4, offset: 0x36CA4, size: 0x8, addend: 0x0, symName: __ZN5Eigen8internal16binary_evaluatorINS_13CwiseBinaryOpINS0_13scalar_sum_opIddEEKNS2_INS0_17scalar_product_opIddEEKNS_12ArrayWrapperINS_6MatrixIdLin1ELin1ELi0ELin1ELin1EEEEESB_EESD_EENS0_10IndexBasedESF_ddE4DataD1Ev, symObjAddr: 0x9E68, symBinAddr: 0x10000D2D8, symSize: 0x2C }
  - { offsetInCU: 0x36CD1, offset: 0x36CD1, size: 0x8, addend: 0x0, symName: __ZN5Eigen8internal16binary_evaluatorINS_13CwiseBinaryOpINS0_13scalar_sum_opIddEEKNS2_INS0_17scalar_product_opIddEEKNS_12ArrayWrapperINS_6MatrixIdLin1ELin1ELi0ELin1ELin1EEEEESB_EESD_EENS0_10IndexBasedESF_ddE4DataD2Ev, symObjAddr: 0x9E94, symBinAddr: 0x10000D304, symSize: 0x6C }
  - { offsetInCU: 0x36CFE, offset: 0x36CFE, size: 0x8, addend: 0x0, symName: __ZN5Eigen8internal9evaluatorIKNS_13CwiseBinaryOpINS0_13scalar_sum_opIddEEKNS2_IS4_KNS2_INS0_17scalar_product_opIddEEKNS_12ArrayWrapperINS_6MatrixIdLin1ELin1ELi0ELin1ELin1EEEEESB_EESD_EESD_EEED2Ev, symObjAddr: 0x9F00, symBinAddr: 0x10000D370, symSize: 0x2C }
  - { offsetInCU: 0x36D2A, offset: 0x36D2A, size: 0x8, addend: 0x0, symName: __ZN5Eigen8internal9evaluatorINS_13CwiseBinaryOpINS0_13scalar_sum_opIddEEKNS2_IS4_KNS2_INS0_17scalar_product_opIddEEKNS_12ArrayWrapperINS_6MatrixIdLin1ELin1ELi0ELin1ELin1EEEEESB_EESD_EESD_EEED2Ev, symObjAddr: 0x9F2C, symBinAddr: 0x10000D39C, symSize: 0x2C }
  - { offsetInCU: 0x36D57, offset: 0x36D57, size: 0x8, addend: 0x0, symName: __ZN5Eigen8internal16binary_evaluatorINS_13CwiseBinaryOpINS0_13scalar_sum_opIddEEKNS2_IS4_KNS2_INS0_17scalar_product_opIddEEKNS_12ArrayWrapperINS_6MatrixIdLin1ELin1ELi0ELin1ELin1EEEEESB_EESD_EESD_EENS0_10IndexBasedESH_ddED2Ev, symObjAddr: 0x9F58, symBinAddr: 0x10000D3C8, symSize: 0x5C }
  - { offsetInCU: 0x36D83, offset: 0x36D83, size: 0x8, addend: 0x0, symName: __ZN5Eigen8internal16binary_evaluatorINS_13CwiseBinaryOpINS0_13scalar_sum_opIddEEKNS2_IS4_KNS2_INS0_17scalar_product_opIddEEKNS_12ArrayWrapperINS_6MatrixIdLin1ELin1ELi0ELin1ELin1EEEEESB_EESD_EESD_EENS0_10IndexBasedESH_ddE4DataD1Ev, symObjAddr: 0x9FB4, symBinAddr: 0x10000D424, symSize: 0x2C }
  - { offsetInCU: 0x36DB0, offset: 0x36DB0, size: 0x8, addend: 0x0, symName: __ZN5Eigen8internal16binary_evaluatorINS_13CwiseBinaryOpINS0_13scalar_sum_opIddEEKNS2_IS4_KNS2_INS0_17scalar_product_opIddEEKNS_12ArrayWrapperINS_6MatrixIdLin1ELin1ELi0ELin1ELin1EEEEESB_EESD_EESD_EENS0_10IndexBasedESH_ddE4DataD2Ev, symObjAddr: 0x9FE0, symBinAddr: 0x10000D450, symSize: 0x6C }
  - { offsetInCU: 0x36DDD, offset: 0x36DDD, size: 0x8, addend: 0x0, symName: __ZN5Eigen8internal9evaluatorIKNS_13CwiseBinaryOpINS0_13scalar_sum_opIddEEKNS2_IS4_KNS2_IS4_KNS2_INS0_17scalar_product_opIddEEKNS_12ArrayWrapperINS_6MatrixIdLin1ELin1ELi0ELin1ELin1EEEEESB_EESD_EESD_EESD_EEED2Ev, symObjAddr: 0xA04C, symBinAddr: 0x10000D4BC, symSize: 0x2C }
  - { offsetInCU: 0x36E09, offset: 0x36E09, size: 0x8, addend: 0x0, symName: __ZN5Eigen8internal9evaluatorINS_13CwiseBinaryOpINS0_13scalar_sum_opIddEEKNS2_IS4_KNS2_IS4_KNS2_INS0_17scalar_product_opIddEEKNS_12ArrayWrapperINS_6MatrixIdLin1ELin1ELi0ELin1ELin1EEEEESB_EESD_EESD_EESD_EEED2Ev, symObjAddr: 0xA078, symBinAddr: 0x10000D4E8, symSize: 0x2C }
  - { offsetInCU: 0x36E36, offset: 0x36E36, size: 0x8, addend: 0x0, symName: __ZN5Eigen8internal16binary_evaluatorINS_13CwiseBinaryOpINS0_13scalar_sum_opIddEEKNS2_IS4_KNS2_IS4_KNS2_INS0_17scalar_product_opIddEEKNS_12ArrayWrapperINS_6MatrixIdLin1ELin1ELi0ELin1ELin1EEEEESB_EESD_EESD_EESD_EENS0_10IndexBasedESJ_ddED2Ev, symObjAddr: 0xA0A4, symBinAddr: 0x10000D514, symSize: 0x5C }
  - { offsetInCU: 0x36E62, offset: 0x36E62, size: 0x8, addend: 0x0, symName: __ZN5Eigen8internal16binary_evaluatorINS_13CwiseBinaryOpINS0_13scalar_sum_opIddEEKNS2_IS4_KNS2_IS4_KNS2_INS0_17scalar_product_opIddEEKNS_12ArrayWrapperINS_6MatrixIdLin1ELin1ELi0ELin1ELin1EEEEESB_EESD_EESD_EESD_EENS0_10IndexBasedESJ_ddE4DataD1Ev, symObjAddr: 0xA100, symBinAddr: 0x10000D570, symSize: 0x2C }
  - { offsetInCU: 0x36E8F, offset: 0x36E8F, size: 0x8, addend: 0x0, symName: __ZN5Eigen8internal16binary_evaluatorINS_13CwiseBinaryOpINS0_13scalar_sum_opIddEEKNS2_IS4_KNS2_IS4_KNS2_INS0_17scalar_product_opIddEEKNS_12ArrayWrapperINS_6MatrixIdLin1ELin1ELi0ELin1ELin1EEEEESB_EESD_EESD_EESD_EENS0_10IndexBasedESJ_ddE4DataD2Ev, symObjAddr: 0xA12C, symBinAddr: 0x10000D59C, symSize: 0x6C }
  - { offsetInCU: 0x36EBC, offset: 0x36EBC, size: 0x8, addend: 0x0, symName: __ZN5Eigen8internal9evaluatorIKNS_13CwiseBinaryOpINS0_17scalar_product_opIddEEKNS_12ArrayWrapperINS_6MatrixIdLin1ELin1ELi0ELin1ELin1EEEEES9_EEEC2ERSB_, symObjAddr: 0xA198, symBinAddr: 0x10000D608, symSize: 0x34 }
  - { offsetInCU: 0x36EF4, offset: 0x36EF4, size: 0x8, addend: 0x0, symName: __ZN5Eigen8internal9evaluatorINS_13CwiseBinaryOpINS0_17scalar_product_opIddEEKNS_12ArrayWrapperINS_6MatrixIdLin1ELin1ELi0ELin1ELin1EEEEES9_EEEC2ERKSA_, symObjAddr: 0xA1CC, symBinAddr: 0x10000D63C, symSize: 0x34 }
  - { offsetInCU: 0x36F2D, offset: 0x36F2D, size: 0x8, addend: 0x0, symName: __ZN5Eigen8internal16binary_evaluatorINS_13CwiseBinaryOpINS0_17scalar_product_opIddEEKNS_12ArrayWrapperINS_6MatrixIdLin1ELin1ELi0ELin1ELin1EEEEES9_EENS0_10IndexBasedESB_ddEC2ERKSA_, symObjAddr: 0xA200, symBinAddr: 0x10000D670, symSize: 0x64 }
  - { offsetInCU: 0x36F66, offset: 0x36F66, size: 0x8, addend: 0x0, symName: __ZN5Eigen8internal14evaluator_baseINS_13CwiseBinaryOpINS0_17scalar_product_opIddEEKNS_12ArrayWrapperINS_6MatrixIdLin1ELin1ELi0ELin1ELin1EEEEES9_EEEC2Ev, symObjAddr: 0xA264, symBinAddr: 0x10000D6D4, symSize: 0x14 }
  - { offsetInCU: 0x36F90, offset: 0x36F90, size: 0x8, addend: 0x0, symName: __ZN5Eigen8internal16binary_evaluatorINS_13CwiseBinaryOpINS0_17scalar_product_opIddEEKNS_12ArrayWrapperINS_6MatrixIdLin1ELin1ELi0ELin1ELin1EEEEES9_EENS0_10IndexBasedESB_ddE4DataC1ERKSA_, symObjAddr: 0xA278, symBinAddr: 0x10000D6E8, symSize: 0x34 }
  - { offsetInCU: 0x36FC9, offset: 0x36FC9, size: 0x8, addend: 0x0, symName: __ZN5Eigen8internal16binary_evaluatorINS_13CwiseBinaryOpINS0_17scalar_product_opIddEEKNS_12ArrayWrapperINS_6MatrixIdLin1ELin1ELi0ELin1ELin1EEEEES9_EENS0_10IndexBasedESB_ddE4DataC2ERKSA_, symObjAddr: 0xA2AC, symBinAddr: 0x10000D71C, symSize: 0xB0 }
  - { offsetInCU: 0x37002, offset: 0x37002, size: 0x8, addend: 0x0, symName: __ZNK5Eigen13CwiseBinaryOpINS_8internal17scalar_product_opIddEEKNS_12ArrayWrapperINS_6MatrixIdLin1ELin1ELi0ELin1ELin1EEEEES8_E7functorEv, symObjAddr: 0xA35C, symBinAddr: 0x10000D7CC, symSize: 0x18 }
  - { offsetInCU: 0x37028, offset: 0x37028, size: 0x8, addend: 0x0, symName: __ZNK5Eigen13CwiseBinaryOpINS_8internal17scalar_product_opIddEEKNS_12ArrayWrapperINS_6MatrixIdLin1ELin1ELi0ELin1ELin1EEEEES8_E3lhsEv, symObjAddr: 0xA374, symBinAddr: 0x10000D7E4, symSize: 0x14 }
  - { offsetInCU: 0x3704E, offset: 0x3704E, size: 0x8, addend: 0x0, symName: __ZN5Eigen8internal9evaluatorIKNS_12ArrayWrapperINS_6MatrixIdLin1ELin1ELi0ELin1ELin1EEEEEEC1ERS6_, symObjAddr: 0xA388, symBinAddr: 0x10000D7F8, symSize: 0x34 }
  - { offsetInCU: 0x37086, offset: 0x37086, size: 0x8, addend: 0x0, symName: __ZNK5Eigen13CwiseBinaryOpINS_8internal17scalar_product_opIddEEKNS_12ArrayWrapperINS_6MatrixIdLin1ELin1ELi0ELin1ELin1EEEEES8_E3rhsEv, symObjAddr: 0xA3BC, symBinAddr: 0x10000D82C, symSize: 0x18 }
  - { offsetInCU: 0x370AC, offset: 0x370AC, size: 0x8, addend: 0x0, symName: __ZN5Eigen8internal9evaluatorIKNS_12ArrayWrapperINS_6MatrixIdLin1ELin1ELi0ELin1ELin1EEEEEEC2ERS6_, symObjAddr: 0xA3D4, symBinAddr: 0x10000D844, symSize: 0x34 }
  - { offsetInCU: 0x370E4, offset: 0x370E4, size: 0x8, addend: 0x0, symName: __ZN5Eigen8internal9evaluatorINS_12ArrayWrapperINS_6MatrixIdLin1ELin1ELi0ELin1ELin1EEEEEEC2ERKS5_, symObjAddr: 0xA408, symBinAddr: 0x10000D878, symSize: 0x34 }
  - { offsetInCU: 0x3711C, offset: 0x3711C, size: 0x8, addend: 0x0, symName: __ZN5Eigen8internal15unary_evaluatorINS_12ArrayWrapperINS_6MatrixIdLin1ELin1ELi0ELin1ELin1EEEEENS0_10IndexBasedEdEC2ERKS5_, symObjAddr: 0xA43C, symBinAddr: 0x10000D8AC, symSize: 0x40 }
  - { offsetInCU: 0x37155, offset: 0x37155, size: 0x8, addend: 0x0, symName: __ZNK5Eigen12ArrayWrapperINS_6MatrixIdLin1ELin1ELi0ELin1ELin1EEEE16nestedExpressionEv, symObjAddr: 0xA47C, symBinAddr: 0x10000D8EC, symSize: 0x18 }
  - { offsetInCU: 0x3717B, offset: 0x3717B, size: 0x8, addend: 0x0, symName: __ZN5Eigen8internal22evaluator_wrapper_baseINS_12ArrayWrapperINS_6MatrixIdLin1ELin1ELi0ELin1ELin1EEEEEEC2ERKS4_, symObjAddr: 0xA494, symBinAddr: 0x10000D904, symSize: 0x64 }
  - { offsetInCU: 0x371B4, offset: 0x371B4, size: 0x8, addend: 0x0, symName: __ZN5Eigen8internal14evaluator_baseINS_12ArrayWrapperINS_6MatrixIdLin1ELin1ELi0ELin1ELin1EEEEEEC2Ev, symObjAddr: 0xA4F8, symBinAddr: 0x10000D968, symSize: 0x14 }
  - { offsetInCU: 0x371DE, offset: 0x371DE, size: 0x8, addend: 0x0, symName: __ZN5Eigen8internal9evaluatorIKNS_13CwiseBinaryOpINS0_13scalar_sum_opIddEEKNS2_IS4_KNS2_IS4_KNS2_IS4_KNS2_INS0_17scalar_product_opIddEEKNS_12ArrayWrapperINS_6MatrixIdLin1ELin1ELi0ELin1ELin1EEEEESB_EESD_EESD_EESD_EESD_EEED2Ev, symObjAddr: 0xA50C, symBinAddr: 0x10000D97C, symSize: 0x2C }
  - { offsetInCU: 0x3720A, offset: 0x3720A, size: 0x8, addend: 0x0, symName: __ZN5Eigen8internal9evaluatorINS_13CwiseBinaryOpINS0_13scalar_sum_opIddEEKNS2_IS4_KNS2_IS4_KNS2_IS4_KNS2_INS0_17scalar_product_opIddEEKNS_12ArrayWrapperINS_6MatrixIdLin1ELin1ELi0ELin1ELin1EEEEESB_EESD_EESD_EESD_EESD_EEED2Ev, symObjAddr: 0xA538, symBinAddr: 0x10000D9A8, symSize: 0x2C }
  - { offsetInCU: 0x37237, offset: 0x37237, size: 0x8, addend: 0x0, symName: __ZN5Eigen8internal16binary_evaluatorINS_13CwiseBinaryOpINS0_13scalar_sum_opIddEEKNS2_IS4_KNS2_IS4_KNS2_IS4_KNS2_INS0_17scalar_product_opIddEEKNS_12ArrayWrapperINS_6MatrixIdLin1ELin1ELi0ELin1ELin1EEEEESB_EESD_EESD_EESD_EESD_EENS0_10IndexBasedESL_ddED2Ev, symObjAddr: 0xA564, symBinAddr: 0x10000D9D4, symSize: 0x5C }
  - { offsetInCU: 0x37263, offset: 0x37263, size: 0x8, addend: 0x0, symName: __ZN5Eigen8internal16binary_evaluatorINS_13CwiseBinaryOpINS0_13scalar_sum_opIddEEKNS2_IS4_KNS2_IS4_KNS2_IS4_KNS2_INS0_17scalar_product_opIddEEKNS_12ArrayWrapperINS_6MatrixIdLin1ELin1ELi0ELin1ELin1EEEEESB_EESD_EESD_EESD_EESD_EENS0_10IndexBasedESL_ddE4DataD1Ev, symObjAddr: 0xA5C0, symBinAddr: 0x10000DA30, symSize: 0x2C }
  - { offsetInCU: 0x37290, offset: 0x37290, size: 0x8, addend: 0x0, symName: __ZN5Eigen8internal16binary_evaluatorINS_13CwiseBinaryOpINS0_13scalar_sum_opIddEEKNS2_IS4_KNS2_IS4_KNS2_IS4_KNS2_INS0_17scalar_product_opIddEEKNS_12ArrayWrapperINS_6MatrixIdLin1ELin1ELi0ELin1ELin1EEEEESB_EESD_EESD_EESD_EESD_EENS0_10IndexBasedESL_ddE4DataD2Ev, symObjAddr: 0xA5EC, symBinAddr: 0x10000DA5C, symSize: 0x6C }
  - { offsetInCU: 0x372BD, offset: 0x372BD, size: 0x8, addend: 0x0, symName: __ZN5Eigen8internal31generic_dense_assignment_kernelINS0_9evaluatorINS_6MatrixIdLin1ELin1ELi0ELin1ELin1EEEEENS2_INS_13CwiseBinaryOpINS0_13scalar_sum_opIddEEKNS6_IS8_KNS6_IS8_KNS6_IS8_KNS6_IS8_KNS6_INS0_17scalar_product_opIddEEKNS_12ArrayWrapperIS4_EESD_EESF_EESF_EESF_EESF_EESF_EEEENS0_9assign_opIddEELi0EEC2ERS5_RKSP_RKSR_RS4_, symObjAddr: 0xA658, symBinAddr: 0x10000DAC8, symSize: 0x44 }
  - { offsetInCU: 0x37323, offset: 0x37323, size: 0x8, addend: 0x0, symName: __ZNK5Eigen8internal31generic_dense_assignment_kernelINS0_9evaluatorINS_6MatrixIdLin1ELin1ELi0ELin1ELin1EEEEENS2_INS_13CwiseBinaryOpINS0_13scalar_sum_opIddEEKNS6_IS8_KNS6_IS8_KNS6_IS8_KNS6_IS8_KNS6_INS0_17scalar_product_opIddEEKNS_12ArrayWrapperIS4_EESD_EESF_EESF_EESF_EESF_EESF_EEEENS0_9assign_opIddEELi0EE4sizeEv, symObjAddr: 0xA69C, symBinAddr: 0x10000DB0C, symSize: 0x28 }
  - { offsetInCU: 0x37349, offset: 0x37349, size: 0x8, addend: 0x0, symName: __ZN5Eigen8internal31unaligned_dense_assignment_loopILb1EE3runINS0_31generic_dense_assignment_kernelINS0_9evaluatorINS_6MatrixIdLin1ELin1ELi0ELin1ELin1EEEEENS5_INS_13CwiseBinaryOpINS0_13scalar_sum_opIddEEKNS9_ISB_KNS9_ISB_KNS9_ISB_KNS9_ISB_KNS9_INS0_17scalar_product_opIddEEKNS_12ArrayWrapperIS7_EESG_EESI_EESI_EESI_EESI_EESI_EEEENS0_9assign_opIddEELi0EEEEEvRT_ll, symObjAddr: 0xA6C4, symBinAddr: 0x10000DB34, symSize: 0x18 }
  - { offsetInCU: 0x37388, offset: 0x37388, size: 0x8, addend: 0x0, symName: __ZN5Eigen8internal31generic_dense_assignment_kernelINS0_9evaluatorINS_6MatrixIdLin1ELin1ELi0ELin1ELin1EEEEENS2_INS_13CwiseBinaryOpINS0_13scalar_sum_opIddEEKNS6_IS8_KNS6_IS8_KNS6_IS8_KNS6_IS8_KNS6_INS0_17scalar_product_opIddEEKNS_12ArrayWrapperIS4_EESD_EESF_EESF_EESF_EESF_EESF_EEEENS0_9assign_opIddEELi0EE12assignPacketILi16ELi16E19__simd128_float64_tEEvl, symObjAddr: 0xA6DC, symBinAddr: 0x10000DB4C, symSize: 0x64 }
  - { offsetInCU: 0x373DA, offset: 0x373DA, size: 0x8, addend: 0x0, symName: __ZN5Eigen8internal31unaligned_dense_assignment_loopILb0EE3runINS0_31generic_dense_assignment_kernelINS0_9evaluatorINS_6MatrixIdLin1ELin1ELi0ELin1ELin1EEEEENS5_INS_13CwiseBinaryOpINS0_13scalar_sum_opIddEEKNS9_ISB_KNS9_ISB_KNS9_ISB_KNS9_ISB_KNS9_INS0_17scalar_product_opIddEEKNS_12ArrayWrapperIS7_EESG_EESI_EESI_EESI_EESI_EESI_EEEENS0_9assign_opIddEELi0EEEEEvRT_ll, symObjAddr: 0xA740, symBinAddr: 0x10000DBB0, symSize: 0x68 }
  - { offsetInCU: 0x37442, offset: 0x37442, size: 0x8, addend: 0x0, symName: __ZNK5Eigen8internal16binary_evaluatorINS_13CwiseBinaryOpINS0_13scalar_sum_opIddEEKNS2_IS4_KNS2_IS4_KNS2_IS4_KNS2_IS4_KNS2_INS0_17scalar_product_opIddEEKNS_12ArrayWrapperINS_6MatrixIdLin1ELin1ELi0ELin1ELin1EEEEESB_EESD_EESD_EESD_EESD_EESD_EENS0_10IndexBasedESN_ddE6packetILi16E19__simd128_float64_tEET0_l, symObjAddr: 0xA7A8, symBinAddr: 0x10000DC18, symSize: 0x70 }
  - { offsetInCU: 0x3748A, offset: 0x3748A, size: 0x8, addend: 0x0, symName: __ZNK5Eigen8internal16binary_evaluatorINS_13CwiseBinaryOpINS0_13scalar_sum_opIddEEKNS2_IS4_KNS2_IS4_KNS2_IS4_KNS2_IS4_KNS2_INS0_17scalar_product_opIddEEKNS_12ArrayWrapperINS_6MatrixIdLin1ELin1ELi0ELin1ELin1EEEEESB_EESD_EESD_EESD_EESD_EESD_EENS0_10IndexBasedESN_ddE4Data4funcEv, symObjAddr: 0xA818, symBinAddr: 0x10000DC88, symSize: 0x14 }
  - { offsetInCU: 0x374B0, offset: 0x374B0, size: 0x8, addend: 0x0, symName: __ZNK5Eigen8internal13scalar_sum_opIddE8packetOpI19__simd128_float64_tEET_RKS5_S7_, symObjAddr: 0xA82C, symBinAddr: 0x10000DC9C, symSize: 0x30 }
  - { offsetInCU: 0x374FB, offset: 0x374FB, size: 0x8, addend: 0x0, symName: __ZNK5Eigen8internal16binary_evaluatorINS_13CwiseBinaryOpINS0_13scalar_sum_opIddEEKNS2_IS4_KNS2_IS4_KNS2_IS4_KNS2_INS0_17scalar_product_opIddEEKNS_12ArrayWrapperINS_6MatrixIdLin1ELin1ELi0ELin1ELin1EEEEESB_EESD_EESD_EESD_EESD_EENS0_10IndexBasedESL_ddE6packetILi16E19__simd128_float64_tEET0_l, symObjAddr: 0xA85C, symBinAddr: 0x10000DCCC, symSize: 0x70 }
  - { offsetInCU: 0x37543, offset: 0x37543, size: 0x8, addend: 0x0, symName: __ZNK5Eigen8internal16binary_evaluatorINS_13CwiseBinaryOpINS0_17scalar_product_opIddEEKNS_12ArrayWrapperINS_6MatrixIdLin1ELin1ELi0ELin1ELin1EEEEES9_EENS0_10IndexBasedESB_ddE6packetILi16E19__simd128_float64_tEET0_l, symObjAddr: 0xA8CC, symBinAddr: 0x10000DD3C, symSize: 0x70 }
  - { offsetInCU: 0x3758B, offset: 0x3758B, size: 0x8, addend: 0x0, symName: __ZNK5Eigen8internal16binary_evaluatorINS_13CwiseBinaryOpINS0_13scalar_sum_opIddEEKNS2_IS4_KNS2_IS4_KNS2_IS4_KNS2_INS0_17scalar_product_opIddEEKNS_12ArrayWrapperINS_6MatrixIdLin1ELin1ELi0ELin1ELin1EEEEESB_EESD_EESD_EESD_EESD_EENS0_10IndexBasedESL_ddE4Data4funcEv, symObjAddr: 0xA97C, symBinAddr: 0x10000DDEC, symSize: 0x14 }
  - { offsetInCU: 0x375B1, offset: 0x375B1, size: 0x8, addend: 0x0, symName: __ZNK5Eigen8internal16binary_evaluatorINS_13CwiseBinaryOpINS0_13scalar_sum_opIddEEKNS2_IS4_KNS2_IS4_KNS2_INS0_17scalar_product_opIddEEKNS_12ArrayWrapperINS_6MatrixIdLin1ELin1ELi0ELin1ELin1EEEEESB_EESD_EESD_EESD_EENS0_10IndexBasedESJ_ddE6packetILi16E19__simd128_float64_tEET0_l, symObjAddr: 0xA990, symBinAddr: 0x10000DE00, symSize: 0x70 }
  - { offsetInCU: 0x375F9, offset: 0x375F9, size: 0x8, addend: 0x0, symName: __ZNK5Eigen8internal16binary_evaluatorINS_13CwiseBinaryOpINS0_13scalar_sum_opIddEEKNS2_IS4_KNS2_IS4_KNS2_INS0_17scalar_product_opIddEEKNS_12ArrayWrapperINS_6MatrixIdLin1ELin1ELi0ELin1ELin1EEEEESB_EESD_EESD_EESD_EENS0_10IndexBasedESJ_ddE4Data4funcEv, symObjAddr: 0xAA00, symBinAddr: 0x10000DE70, symSize: 0x14 }
  - { offsetInCU: 0x3761F, offset: 0x3761F, size: 0x8, addend: 0x0, symName: __ZNK5Eigen8internal16binary_evaluatorINS_13CwiseBinaryOpINS0_13scalar_sum_opIddEEKNS2_IS4_KNS2_INS0_17scalar_product_opIddEEKNS_12ArrayWrapperINS_6MatrixIdLin1ELin1ELi0ELin1ELin1EEEEESB_EESD_EESD_EENS0_10IndexBasedESH_ddE6packetILi16E19__simd128_float64_tEET0_l, symObjAddr: 0xAA14, symBinAddr: 0x10000DE84, symSize: 0x70 }
  - { offsetInCU: 0x37667, offset: 0x37667, size: 0x8, addend: 0x0, symName: __ZNK5Eigen8internal16binary_evaluatorINS_13CwiseBinaryOpINS0_13scalar_sum_opIddEEKNS2_IS4_KNS2_INS0_17scalar_product_opIddEEKNS_12ArrayWrapperINS_6MatrixIdLin1ELin1ELi0ELin1ELin1EEEEESB_EESD_EESD_EENS0_10IndexBasedESH_ddE4Data4funcEv, symObjAddr: 0xAA84, symBinAddr: 0x10000DEF4, symSize: 0x14 }
  - { offsetInCU: 0x3768D, offset: 0x3768D, size: 0x8, addend: 0x0, symName: __ZNK5Eigen8internal16binary_evaluatorINS_13CwiseBinaryOpINS0_13scalar_sum_opIddEEKNS2_INS0_17scalar_product_opIddEEKNS_12ArrayWrapperINS_6MatrixIdLin1ELin1ELi0ELin1ELin1EEEEESB_EESD_EENS0_10IndexBasedESF_ddE6packetILi16E19__simd128_float64_tEET0_l, symObjAddr: 0xAA98, symBinAddr: 0x10000DF08, symSize: 0x70 }
  - { offsetInCU: 0x376D5, offset: 0x376D5, size: 0x8, addend: 0x0, symName: __ZNK5Eigen8internal16binary_evaluatorINS_13CwiseBinaryOpINS0_13scalar_sum_opIddEEKNS2_INS0_17scalar_product_opIddEEKNS_12ArrayWrapperINS_6MatrixIdLin1ELin1ELi0ELin1ELin1EEEEESB_EESD_EENS0_10IndexBasedESF_ddE4Data4funcEv, symObjAddr: 0xAB08, symBinAddr: 0x10000DF78, symSize: 0x14 }
  - { offsetInCU: 0x376FB, offset: 0x376FB, size: 0x8, addend: 0x0, symName: __ZNK5Eigen8internal16binary_evaluatorINS_13CwiseBinaryOpINS0_17scalar_product_opIddEEKNS_12ArrayWrapperINS_6MatrixIdLin1ELin1ELi0ELin1ELin1EEEEES9_EENS0_10IndexBasedESB_ddE4Data4funcEv, symObjAddr: 0xAB1C, symBinAddr: 0x10000DF8C, symSize: 0x14 }
  - { offsetInCU: 0x37721, offset: 0x37721, size: 0x8, addend: 0x0, symName: __ZNK5Eigen8internal17scalar_product_opIddE8packetOpI19__simd128_float64_tEET_RKS5_S7_, symObjAddr: 0xAB30, symBinAddr: 0x10000DFA0, symSize: 0x30 }
  - { offsetInCU: 0x3776C, offset: 0x3776C, size: 0x8, addend: 0x0, symName: __ZNK5Eigen8internal22evaluator_wrapper_baseINS_12ArrayWrapperINS_6MatrixIdLin1ELin1ELi0ELin1ELin1EEEEEE6packetILi16E19__simd128_float64_tEET0_l, symObjAddr: 0xAB60, symBinAddr: 0x10000DFD0, symSize: 0x2C }
  - { offsetInCU: 0x377B4, offset: 0x377B4, size: 0x8, addend: 0x0, symName: __ZNK5Eigen8internal9evaluatorINS_15PlainObjectBaseINS_6MatrixIdLin1ELin1ELi0ELin1ELin1EEEEEE6packetILi16E19__simd128_float64_tEET0_l, symObjAddr: 0xABCC, symBinAddr: 0x10000E03C, symSize: 0x3C }
  - { offsetInCU: 0x37819, offset: 0x37819, size: 0x8, addend: 0x0, symName: __ZN5Eigen8internal31generic_dense_assignment_kernelINS0_9evaluatorINS_6MatrixIdLin1ELin1ELi0ELin1ELin1EEEEENS2_INS_13CwiseBinaryOpINS0_13scalar_sum_opIddEEKNS6_IS8_KNS6_IS8_KNS6_IS8_KNS6_IS8_KNS6_INS0_17scalar_product_opIddEEKNS_12ArrayWrapperIS4_EESD_EESF_EESF_EESF_EESF_EESF_EEEENS0_9assign_opIddEELi0EE11assignCoeffEl, symObjAddr: 0xAC30, symBinAddr: 0x10000E0A0, symSize: 0x64 }
  - { offsetInCU: 0x3784E, offset: 0x3784E, size: 0x8, addend: 0x0, symName: __ZNK5Eigen8internal16binary_evaluatorINS_13CwiseBinaryOpINS0_13scalar_sum_opIddEEKNS2_IS4_KNS2_IS4_KNS2_IS4_KNS2_IS4_KNS2_INS0_17scalar_product_opIddEEKNS_12ArrayWrapperINS_6MatrixIdLin1ELin1ELi0ELin1ELin1EEEEESB_EESD_EESD_EESD_EESD_EESD_EENS0_10IndexBasedESN_ddE5coeffEl, symObjAddr: 0xAC94, symBinAddr: 0x10000E104, symSize: 0x70 }
  - { offsetInCU: 0x37883, offset: 0x37883, size: 0x8, addend: 0x0, symName: __ZNK5Eigen8internal13scalar_sum_opIddEclERKdS4_, symObjAddr: 0xAD04, symBinAddr: 0x10000E174, symSize: 0x2C }
  - { offsetInCU: 0x378C5, offset: 0x378C5, size: 0x8, addend: 0x0, symName: __ZNK5Eigen8internal16binary_evaluatorINS_13CwiseBinaryOpINS0_13scalar_sum_opIddEEKNS2_IS4_KNS2_IS4_KNS2_IS4_KNS2_INS0_17scalar_product_opIddEEKNS_12ArrayWrapperINS_6MatrixIdLin1ELin1ELi0ELin1ELin1EEEEESB_EESD_EESD_EESD_EESD_EENS0_10IndexBasedESL_ddE5coeffEl, symObjAddr: 0xAD30, symBinAddr: 0x10000E1A0, symSize: 0x70 }
  - { offsetInCU: 0x378FA, offset: 0x378FA, size: 0x8, addend: 0x0, symName: __ZNK5Eigen8internal16binary_evaluatorINS_13CwiseBinaryOpINS0_17scalar_product_opIddEEKNS_12ArrayWrapperINS_6MatrixIdLin1ELin1ELi0ELin1ELin1EEEEES9_EENS0_10IndexBasedESB_ddE5coeffEl, symObjAddr: 0xADA0, symBinAddr: 0x10000E210, symSize: 0x64 }
  - { offsetInCU: 0x3792F, offset: 0x3792F, size: 0x8, addend: 0x0, symName: __ZNK5Eigen8internal16binary_evaluatorINS_13CwiseBinaryOpINS0_13scalar_sum_opIddEEKNS2_IS4_KNS2_IS4_KNS2_INS0_17scalar_product_opIddEEKNS_12ArrayWrapperINS_6MatrixIdLin1ELin1ELi0ELin1ELin1EEEEESB_EESD_EESD_EESD_EENS0_10IndexBasedESJ_ddE5coeffEl, symObjAddr: 0xAE04, symBinAddr: 0x10000E274, symSize: 0x70 }
  - { offsetInCU: 0x37964, offset: 0x37964, size: 0x8, addend: 0x0, symName: __ZNK5Eigen8internal16binary_evaluatorINS_13CwiseBinaryOpINS0_13scalar_sum_opIddEEKNS2_IS4_KNS2_INS0_17scalar_product_opIddEEKNS_12ArrayWrapperINS_6MatrixIdLin1ELin1ELi0ELin1ELin1EEEEESB_EESD_EESD_EENS0_10IndexBasedESH_ddE5coeffEl, symObjAddr: 0xAE74, symBinAddr: 0x10000E2E4, symSize: 0x70 }
  - { offsetInCU: 0x37999, offset: 0x37999, size: 0x8, addend: 0x0, symName: __ZNK5Eigen8internal16binary_evaluatorINS_13CwiseBinaryOpINS0_13scalar_sum_opIddEEKNS2_INS0_17scalar_product_opIddEEKNS_12ArrayWrapperINS_6MatrixIdLin1ELin1ELi0ELin1ELin1EEEEESB_EESD_EENS0_10IndexBasedESF_ddE5coeffEl, symObjAddr: 0xAEE4, symBinAddr: 0x10000E354, symSize: 0x70 }
  - { offsetInCU: 0x379CE, offset: 0x379CE, size: 0x8, addend: 0x0, symName: __ZNK5Eigen8internal17scalar_product_opIddEclERKdS4_, symObjAddr: 0xAF54, symBinAddr: 0x10000E3C4, symSize: 0x2C }
  - { offsetInCU: 0x37A10, offset: 0x37A10, size: 0x8, addend: 0x0, symName: __ZNK5Eigen8internal22evaluator_wrapper_baseINS_12ArrayWrapperINS_6MatrixIdLin1ELin1ELi0ELin1ELin1EEEEEE5coeffEl, symObjAddr: 0xAF80, symBinAddr: 0x10000E3F0, symSize: 0x2C }
  - { offsetInCU: 0x37A45, offset: 0x37A45, size: 0x8, addend: 0x0, symName: __ZNK5Eigen8internal9evaluatorINS_15PlainObjectBaseINS_6MatrixIdLin1ELin1ELi0ELin1ELin1EEEEEE5coeffEl, symObjAddr: 0xAFAC, symBinAddr: 0x10000E41C, symSize: 0x24 }
  - { offsetInCU: 0x37A79, offset: 0x37A79, size: 0x8, addend: 0x0, symName: __ZN5Eigen8internal9evaluatorINS_13CwiseBinaryOpINS0_13scalar_sum_opIddEEKNS2_IS4_KNS2_IS4_KNS2_IS4_KNS2_IS4_KNS2_INS0_17scalar_product_opIddEEKNS_12ArrayWrapperINS_6MatrixIdLin1ELin1ELi0ELin1ELin1EEEEESB_EESD_EESD_EESD_EESD_EESD_EEED2Ev, symObjAddr: 0xAFD0, symBinAddr: 0x10000E440, symSize: 0x2C }
  - { offsetInCU: 0x37AA6, offset: 0x37AA6, size: 0x8, addend: 0x0, symName: __ZN5Eigen8internal16binary_evaluatorINS_13CwiseBinaryOpINS0_13scalar_sum_opIddEEKNS2_IS4_KNS2_IS4_KNS2_IS4_KNS2_IS4_KNS2_INS0_17scalar_product_opIddEEKNS_12ArrayWrapperINS_6MatrixIdLin1ELin1ELi0ELin1ELin1EEEEESB_EESD_EESD_EESD_EESD_EESD_EENS0_10IndexBasedESN_ddED2Ev, symObjAddr: 0xAFFC, symBinAddr: 0x10000E46C, symSize: 0x5C }
  - { offsetInCU: 0x37AD2, offset: 0x37AD2, size: 0x8, addend: 0x0, symName: __ZN5Eigen8internal16binary_evaluatorINS_13CwiseBinaryOpINS0_13scalar_sum_opIddEEKNS2_IS4_KNS2_IS4_KNS2_IS4_KNS2_IS4_KNS2_INS0_17scalar_product_opIddEEKNS_12ArrayWrapperINS_6MatrixIdLin1ELin1ELi0ELin1ELin1EEEEESB_EESD_EESD_EESD_EESD_EESD_EENS0_10IndexBasedESN_ddE4DataD1Ev, symObjAddr: 0xB058, symBinAddr: 0x10000E4C8, symSize: 0x2C }
  - { offsetInCU: 0x37AFF, offset: 0x37AFF, size: 0x8, addend: 0x0, symName: __ZN5Eigen8internal16binary_evaluatorINS_13CwiseBinaryOpINS0_13scalar_sum_opIddEEKNS2_IS4_KNS2_IS4_KNS2_IS4_KNS2_IS4_KNS2_INS0_17scalar_product_opIddEEKNS_12ArrayWrapperINS_6MatrixIdLin1ELin1ELi0ELin1ELin1EEEEESB_EESD_EESD_EESD_EESD_EESD_EENS0_10IndexBasedESN_ddE4DataD2Ev, symObjAddr: 0xB084, symBinAddr: 0x10000E4F4, symSize: 0x6C }
  - { offsetInCU: 0x37B2C, offset: 0x37B2C, size: 0x8, addend: 0x0, symName: __ZN5Eigen6MatrixIdLin1ELin1ELi0ELin1ELin1EEC2INS_5BlockIS1_Lin1ELin1ELb0EEEEERKNS_9EigenBaseIT_EE, symObjAddr: 0xB0F0, symBinAddr: 0x10000E560, symSize: 0x40 }
  - { offsetInCU: 0x37B6E, offset: 0x37B6E, size: 0x8, addend: 0x0, symName: __ZN5Eigen15PlainObjectBaseINS_6MatrixIdLin1ELin1ELi0ELin1ELin1EEEEC2INS_5BlockIS2_Lin1ELin1ELb0EEEEERKNS_9DenseBaseIT_EE, symObjAddr: 0xB130, symBinAddr: 0x10000E5A0, symSize: 0x88 }
  - { offsetInCU: 0x37BB0, offset: 0x37BB0, size: 0x8, addend: 0x0, symName: __ZN5Eigen15PlainObjectBaseINS_6MatrixIdLin1ELin1ELi0ELin1ELin1EEEE10resizeLikeINS_5BlockIS2_Lin1ELin1ELb0EEEEEvRKNS_9EigenBaseIT_EE, symObjAddr: 0xB1B8, symBinAddr: 0x10000E628, symSize: 0x11C }
  - { offsetInCU: 0x37C44, offset: 0x37C44, size: 0x8, addend: 0x0, symName: __ZN5Eigen15PlainObjectBaseINS_6MatrixIdLin1ELin1ELi0ELin1ELin1EEEE12_set_noaliasINS_5BlockIS2_Lin1ELin1ELb0EEEEERS2_RKNS_9DenseBaseIT_EE, symObjAddr: 0xB2D4, symBinAddr: 0x10000E744, symSize: 0x60 }
  - { offsetInCU: 0x37C82, offset: 0x37C82, size: 0x8, addend: 0x0, symName: __ZN5Eigen8internal10AssignmentINS_6MatrixIdLin1ELin1ELi0ELin1ELin1EEENS_5BlockIS3_Lin1ELin1ELb0EEENS0_9assign_opIddEENS0_11Dense2DenseEvE3runERS3_RKS5_RKS7_, symObjAddr: 0xB370, symBinAddr: 0x10000E7E0, symSize: 0x40 }
  - { offsetInCU: 0x37CC4, offset: 0x37CC4, size: 0x8, addend: 0x0, symName: __ZN5Eigen8internal27checkTransposeAliasing_implINS_6MatrixIdLin1ELin1ELi0ELin1ELin1EEENS_5BlockIS3_Lin1ELin1ELb0EEELb0EE3runERKS3_RKS5_, symObjAddr: 0xB4F8, symBinAddr: 0x10000E968, symSize: 0x14 }
  - { offsetInCU: 0x37CEF, offset: 0x37CEF, size: 0x8, addend: 0x0, symName: __ZN5Eigen8internal31generic_dense_assignment_kernelINS0_9evaluatorINS_6MatrixIdLin1ELin1ELi0ELin1ELin1EEEEENS2_INS_5BlockIS4_Lin1ELin1ELb0EEEEENS0_9assign_opIddEELi0EEC1ERS5_RKS8_RKSA_RS4_, symObjAddr: 0xB604, symBinAddr: 0x10000EA74, symSize: 0x4C }
  - { offsetInCU: 0x37D55, offset: 0x37D55, size: 0x8, addend: 0x0, symName: __ZN5Eigen8internal31generic_dense_assignment_kernelINS0_9evaluatorINS_6MatrixIdLin1ELin1ELi0ELin1ELin1EEEEENS2_INS_5BlockIS4_Lin1ELin1ELb0EEEEENS0_9assign_opIddEELi0EEC2ERS5_RKS8_RKSA_RS4_, symObjAddr: 0xB828, symBinAddr: 0x10000EC98, symSize: 0x44 }
  - { offsetInCU: 0x37DBB, offset: 0x37DBB, size: 0x8, addend: 0x0, symName: __ZNK5Eigen8internal31generic_dense_assignment_kernelINS0_9evaluatorINS_6MatrixIdLin1ELin1ELi0ELin1ELin1EEEEENS2_INS_5BlockIS4_Lin1ELin1ELb0EEEEENS0_9assign_opIddEELi0EE10dstDataPtrEv, symObjAddr: 0xB86C, symBinAddr: 0x10000ECDC, symSize: 0x28 }
  - { offsetInCU: 0x37DE1, offset: 0x37DE1, size: 0x8, addend: 0x0, symName: __ZNK5Eigen8internal31generic_dense_assignment_kernelINS0_9evaluatorINS_6MatrixIdLin1ELin1ELi0ELin1ELin1EEEEENS2_INS_5BlockIS4_Lin1ELin1ELb0EEEEENS0_9assign_opIddEELi0EE9innerSizeEv, symObjAddr: 0xB894, symBinAddr: 0x10000ED04, symSize: 0x28 }
  - { offsetInCU: 0x37E07, offset: 0x37E07, size: 0x8, addend: 0x0, symName: __ZNK5Eigen8internal31generic_dense_assignment_kernelINS0_9evaluatorINS_6MatrixIdLin1ELin1ELi0ELin1ELin1EEEEENS2_INS_5BlockIS4_Lin1ELin1ELb0EEEEENS0_9assign_opIddEELi0EE9outerSizeEv, symObjAddr: 0xB8BC, symBinAddr: 0x10000ED2C, symSize: 0x28 }
  - { offsetInCU: 0x37E2D, offset: 0x37E2D, size: 0x8, addend: 0x0, symName: __ZNK5Eigen8internal31generic_dense_assignment_kernelINS0_9evaluatorINS_6MatrixIdLin1ELin1ELi0ELin1ELin1EEEEENS2_INS_5BlockIS4_Lin1ELin1ELb0EEEEENS0_9assign_opIddEELi0EE11outerStrideEv, symObjAddr: 0xB8E4, symBinAddr: 0x10000ED54, symSize: 0x28 }
  - { offsetInCU: 0x37E53, offset: 0x37E53, size: 0x8, addend: 0x0, symName: __ZN5Eigen8internal31generic_dense_assignment_kernelINS0_9evaluatorINS_6MatrixIdLin1ELin1ELi0ELin1ELin1EEEEENS2_INS_5BlockIS4_Lin1ELin1ELb0EEEEENS0_9assign_opIddEELi0EE23assignCoeffByOuterInnerEll, symObjAddr: 0xB90C, symBinAddr: 0x10000ED7C, symSize: 0x60 }
  - { offsetInCU: 0x37EB5, offset: 0x37EB5, size: 0x8, addend: 0x0, symName: __ZN5Eigen8internal31generic_dense_assignment_kernelINS0_9evaluatorINS_6MatrixIdLin1ELin1ELi0ELin1ELin1EEEEENS2_INS_5BlockIS4_Lin1ELin1ELb0EEEEENS0_9assign_opIddEELi0EE24assignPacketByOuterInnerILi16ELi0E19__simd128_float64_tEEvll, symObjAddr: 0xB96C, symBinAddr: 0x10000EDDC, symSize: 0x60 }
  - { offsetInCU: 0x37F34, offset: 0x37F34, size: 0x8, addend: 0x0, symName: __ZNK5Eigen9DenseBaseINS_6MatrixIdLin1ELin1ELi0ELin1ELin1EEEE9outerSizeEv, symObjAddr: 0xB9CC, symBinAddr: 0x10000EE3C, symSize: 0x24 }
  - { offsetInCU: 0x37F5A, offset: 0x37F5A, size: 0x8, addend: 0x0, symName: __ZN5Eigen8internal31generic_dense_assignment_kernelINS0_9evaluatorINS_6MatrixIdLin1ELin1ELi0ELin1ELin1EEEEENS2_INS_5BlockIS4_Lin1ELin1ELb0EEEEENS0_9assign_opIddEELi0EE20rowIndexByOuterInnerEll, symObjAddr: 0xB9F0, symBinAddr: 0x10000EE60, symSize: 0x18 }
  - { offsetInCU: 0x37F8D, offset: 0x37F8D, size: 0x8, addend: 0x0, symName: __ZN5Eigen8internal31generic_dense_assignment_kernelINS0_9evaluatorINS_6MatrixIdLin1ELin1ELi0ELin1ELin1EEEEENS2_INS_5BlockIS4_Lin1ELin1ELb0EEEEENS0_9assign_opIddEELi0EE20colIndexByOuterInnerEll, symObjAddr: 0xBA08, symBinAddr: 0x10000EE78, symSize: 0x18 }
  - { offsetInCU: 0x37FC0, offset: 0x37FC0, size: 0x8, addend: 0x0, symName: __ZN5Eigen8internal31generic_dense_assignment_kernelINS0_9evaluatorINS_6MatrixIdLin1ELin1ELi0ELin1ELin1EEEEENS2_INS_5BlockIS4_Lin1ELin1ELb0EEEEENS0_9assign_opIddEELi0EE11assignCoeffEll, symObjAddr: 0xBA20, symBinAddr: 0x10000EE90, symSize: 0x6C }
  - { offsetInCU: 0x38004, offset: 0x38004, size: 0x8, addend: 0x0, symName: __ZN5Eigen8internal9evaluatorINS_15PlainObjectBaseINS_6MatrixIdLin1ELin1ELi0ELin1ELin1EEEEEE8coeffRefEll, symObjAddr: 0xBA8C, symBinAddr: 0x10000EEFC, symSize: 0x5C }
  - { offsetInCU: 0x38046, offset: 0x38046, size: 0x8, addend: 0x0, symName: __ZNK5Eigen8internal30plainobjectbase_evaluator_dataIdLin1EE11outerStrideEv, symObjAddr: 0xBAE8, symBinAddr: 0x10000EF58, symSize: 0x18 }
  - { offsetInCU: 0x3806C, offset: 0x3806C, size: 0x8, addend: 0x0, symName: __ZN5Eigen8internal31generic_dense_assignment_kernelINS0_9evaluatorINS_6MatrixIdLin1ELin1ELi0ELin1ELin1EEEEENS2_INS_5BlockIS4_Lin1ELin1ELb0EEEEENS0_9assign_opIddEELi0EE12assignPacketILi16ELi0E19__simd128_float64_tEEvll, symObjAddr: 0xBB00, symBinAddr: 0x10000EF70, symSize: 0x70 }
  - { offsetInCU: 0x380CD, offset: 0x380CD, size: 0x8, addend: 0x0, symName: __ZN5Eigen13CwiseBinaryOpINS_8internal13scalar_sum_opIddEEKNS0_IS3_KNS0_IS3_KNS0_IS3_KNS0_IS3_KNS0_IS3_KNS0_INS1_17scalar_product_opIddEEKNS_12ArrayWrapperINS_6MatrixIdLin1ELin1ELi0ELin1ELin1EEEEESA_EESC_EESC_EESC_EESC_EESC_EESC_EC1ERSM_RSC_RKS3_, symObjAddr: 0xBB70, symBinAddr: 0x10000EFE0, symSize: 0x44 }
  - { offsetInCU: 0x38121, offset: 0x38121, size: 0x8, addend: 0x0, symName: __ZN5Eigen13CwiseBinaryOpINS_8internal13scalar_sum_opIddEEKNS0_IS3_KNS0_IS3_KNS0_IS3_KNS0_IS3_KNS0_IS3_KNS0_INS1_17scalar_product_opIddEEKNS_12ArrayWrapperINS_6MatrixIdLin1ELin1ELi0ELin1ELin1EEEEESA_EESC_EESC_EESC_EESC_EESC_EESC_EC2ERSM_RSC_RKS3_, symObjAddr: 0xBBB4, symBinAddr: 0x10000F024, symSize: 0x104 }
  - { offsetInCU: 0x3817A, offset: 0x3817A, size: 0x8, addend: 0x0, symName: __ZN5Eigen17CwiseBinaryOpImplINS_8internal13scalar_sum_opIddEEKNS_13CwiseBinaryOpIS3_KNS4_IS3_KNS4_IS3_KNS4_IS3_KNS4_IS3_KNS4_INS1_17scalar_product_opIddEEKNS_12ArrayWrapperINS_6MatrixIdLin1ELin1ELi0ELin1ELin1EEEEESB_EESD_EESD_EESD_EESD_EESD_EESD_NS_5DenseEEC2Ev, symObjAddr: 0xBCB8, symBinAddr: 0x10000F128, symSize: 0x2C }
  - { offsetInCU: 0x381A6, offset: 0x381A6, size: 0x8, addend: 0x0, symName: __ZN5Eigen13CwiseBinaryOpINS_8internal13scalar_sum_opIddEEKNS0_IS3_KNS0_IS3_KNS0_IS3_KNS0_IS3_KNS0_INS1_17scalar_product_opIddEEKNS_12ArrayWrapperINS_6MatrixIdLin1ELin1ELi0ELin1ELin1EEEEESA_EESC_EESC_EESC_EESC_EESC_EC1ERKSL_, symObjAddr: 0xBCE4, symBinAddr: 0x10000F154, symSize: 0x34 }
  - { offsetInCU: 0x381DB, offset: 0x381DB, size: 0x8, addend: 0x0, symName: __ZN5Eigen9ArrayBaseINS_13CwiseBinaryOpINS_8internal13scalar_sum_opIddEEKNS1_IS4_KNS1_IS4_KNS1_IS4_KNS1_IS4_KNS1_IS4_KNS1_INS2_17scalar_product_opIddEEKNS_12ArrayWrapperINS_6MatrixIdLin1ELin1ELi0ELin1ELin1EEEEESB_EESD_EESD_EESD_EESD_EESD_EESD_EEEC2Ev, symObjAddr: 0xBD18, symBinAddr: 0x10000F188, symSize: 0x2C }
  - { offsetInCU: 0x38205, offset: 0x38205, size: 0x8, addend: 0x0, symName: __ZN5Eigen9DenseBaseINS_13CwiseBinaryOpINS_8internal13scalar_sum_opIddEEKNS1_IS4_KNS1_IS4_KNS1_IS4_KNS1_IS4_KNS1_IS4_KNS1_INS2_17scalar_product_opIddEEKNS_12ArrayWrapperINS_6MatrixIdLin1ELin1ELi0ELin1ELin1EEEEESB_EESD_EESD_EESD_EESD_EESD_EESD_EEEC2Ev, symObjAddr: 0xBD44, symBinAddr: 0x10000F1B4, symSize: 0x14 }
  - { offsetInCU: 0x3822F, offset: 0x3822F, size: 0x8, addend: 0x0, symName: __ZN5Eigen13CwiseBinaryOpINS_8internal13scalar_sum_opIddEEKNS0_IS3_KNS0_IS3_KNS0_IS3_KNS0_IS3_KNS0_INS1_17scalar_product_opIddEEKNS_12ArrayWrapperINS_6MatrixIdLin1ELin1ELi0ELin1ELin1EEEEESA_EESC_EESC_EESC_EESC_EESC_EC2ERKSL_, symObjAddr: 0xBD58, symBinAddr: 0x10000F1C8, symSize: 0x64 }
  - { offsetInCU: 0x38264, offset: 0x38264, size: 0x8, addend: 0x0, symName: __ZNK5Eigen9EigenBaseINS_13CwiseBinaryOpINS_8internal13scalar_sum_opIddEEKNS1_IS4_KNS1_IS4_KNS1_IS4_KNS1_IS4_KNS1_IS4_KNS1_INS2_17scalar_product_opIddEEKNS_12ArrayWrapperINS_6MatrixIdLin1ELin1ELi0ELin1ELin1EEEEESB_EESD_EESD_EESD_EESD_EESD_EESD_EEE7derivedEv, symObjAddr: 0xBDBC, symBinAddr: 0x10000F22C, symSize: 0x14 }
  - { offsetInCU: 0x3828A, offset: 0x3828A, size: 0x8, addend: 0x0, symName: __ZN5Eigen13CwiseBinaryOpINS_8internal13scalar_sum_opIddEEKNS0_IS3_KNS0_IS3_KNS0_IS3_KNS0_IS3_KNS0_IS3_KNS0_IS3_KNS0_INS1_17scalar_product_opIddEEKNS_12ArrayWrapperINS_6MatrixIdLin1ELin1ELi0ELin1ELin1EEEEESA_EESC_EESC_EESC_EESC_EESC_EESC_EESC_EC1ERSO_RSC_RKS3_, symObjAddr: 0xBDD0, symBinAddr: 0x10000F240, symSize: 0x44 }
  - { offsetInCU: 0x382DE, offset: 0x382DE, size: 0x8, addend: 0x0, symName: __ZN5Eigen13CwiseBinaryOpINS_8internal13scalar_sum_opIddEEKNS0_IS3_KNS0_IS3_KNS0_IS3_KNS0_IS3_KNS0_IS3_KNS0_IS3_KNS0_INS1_17scalar_product_opIddEEKNS_12ArrayWrapperINS_6MatrixIdLin1ELin1ELi0ELin1ELin1EEEEESA_EESC_EESC_EESC_EESC_EESC_EESC_EESC_EC2ERSO_RSC_RKS3_, symObjAddr: 0xBE14, symBinAddr: 0x10000F284, symSize: 0x104 }
  - { offsetInCU: 0x38337, offset: 0x38337, size: 0x8, addend: 0x0, symName: __ZN5Eigen17CwiseBinaryOpImplINS_8internal13scalar_sum_opIddEEKNS_13CwiseBinaryOpIS3_KNS4_IS3_KNS4_IS3_KNS4_IS3_KNS4_IS3_KNS4_IS3_KNS4_INS1_17scalar_product_opIddEEKNS_12ArrayWrapperINS_6MatrixIdLin1ELin1ELi0ELin1ELin1EEEEESB_EESD_EESD_EESD_EESD_EESD_EESD_EESD_NS_5DenseEEC2Ev, symObjAddr: 0xBF18, symBinAddr: 0x10000F388, symSize: 0x2C }
  - { offsetInCU: 0x38363, offset: 0x38363, size: 0x8, addend: 0x0, symName: __ZN5Eigen13CwiseBinaryOpINS_8internal13scalar_sum_opIddEEKNS0_IS3_KNS0_IS3_KNS0_IS3_KNS0_IS3_KNS0_IS3_KNS0_INS1_17scalar_product_opIddEEKNS_12ArrayWrapperINS_6MatrixIdLin1ELin1ELi0ELin1ELin1EEEEESA_EESC_EESC_EESC_EESC_EESC_EESC_EC1ERKSN_, symObjAddr: 0xBF44, symBinAddr: 0x10000F3B4, symSize: 0x34 }
  - { offsetInCU: 0x38398, offset: 0x38398, size: 0x8, addend: 0x0, symName: __ZNK5Eigen13CwiseBinaryOpINS_8internal13scalar_sum_opIddEEKNS0_IS3_KNS0_IS3_KNS0_IS3_KNS0_IS3_KNS0_IS3_KNS0_INS1_17scalar_product_opIddEEKNS_12ArrayWrapperINS_6MatrixIdLin1ELin1ELi0ELin1ELin1EEEEESA_EESC_EESC_EESC_EESC_EESC_EESC_E4rowsEv, symObjAddr: 0xBF78, symBinAddr: 0x10000F3E8, symSize: 0x28 }
  - { offsetInCU: 0x383BE, offset: 0x383BE, size: 0x8, addend: 0x0, symName: __ZNK5Eigen13CwiseBinaryOpINS_8internal13scalar_sum_opIddEEKNS0_IS3_KNS0_IS3_KNS0_IS3_KNS0_IS3_KNS0_IS3_KNS0_INS1_17scalar_product_opIddEEKNS_12ArrayWrapperINS_6MatrixIdLin1ELin1ELi0ELin1ELin1EEEEESA_EESC_EESC_EESC_EESC_EESC_EESC_E4colsEv, symObjAddr: 0xBFA0, symBinAddr: 0x10000F410, symSize: 0x28 }
  - { offsetInCU: 0x383E4, offset: 0x383E4, size: 0x8, addend: 0x0, symName: __ZN5Eigen9ArrayBaseINS_13CwiseBinaryOpINS_8internal13scalar_sum_opIddEEKNS1_IS4_KNS1_IS4_KNS1_IS4_KNS1_IS4_KNS1_IS4_KNS1_IS4_KNS1_INS2_17scalar_product_opIddEEKNS_12ArrayWrapperINS_6MatrixIdLin1ELin1ELi0ELin1ELin1EEEEESB_EESD_EESD_EESD_EESD_EESD_EESD_EESD_EEEC2Ev, symObjAddr: 0xBFC8, symBinAddr: 0x10000F438, symSize: 0x2C }
  - { offsetInCU: 0x3840E, offset: 0x3840E, size: 0x8, addend: 0x0, symName: __ZN5Eigen9DenseBaseINS_13CwiseBinaryOpINS_8internal13scalar_sum_opIddEEKNS1_IS4_KNS1_IS4_KNS1_IS4_KNS1_IS4_KNS1_IS4_KNS1_IS4_KNS1_INS2_17scalar_product_opIddEEKNS_12ArrayWrapperINS_6MatrixIdLin1ELin1ELi0ELin1ELin1EEEEESB_EESD_EESD_EESD_EESD_EESD_EESD_EESD_EEEC2Ev, symObjAddr: 0xBFF4, symBinAddr: 0x10000F464, symSize: 0x14 }
  - { offsetInCU: 0x38438, offset: 0x38438, size: 0x8, addend: 0x0, symName: __ZN5Eigen13CwiseBinaryOpINS_8internal13scalar_sum_opIddEEKNS0_IS3_KNS0_IS3_KNS0_IS3_KNS0_IS3_KNS0_IS3_KNS0_INS1_17scalar_product_opIddEEKNS_12ArrayWrapperINS_6MatrixIdLin1ELin1ELi0ELin1ELin1EEEEESA_EESC_EESC_EESC_EESC_EESC_EESC_EC2ERKSN_, symObjAddr: 0xC008, symBinAddr: 0x10000F478, symSize: 0x64 }
  - { offsetInCU: 0x3846D, offset: 0x3846D, size: 0x8, addend: 0x0, symName: __ZNK5Eigen9EigenBaseINS_13CwiseBinaryOpINS_8internal13scalar_sum_opIddEEKNS1_IS4_KNS1_IS4_KNS1_IS4_KNS1_IS4_KNS1_IS4_KNS1_IS4_KNS1_INS2_17scalar_product_opIddEEKNS_12ArrayWrapperINS_6MatrixIdLin1ELin1ELi0ELin1ELin1EEEEESB_EESD_EESD_EESD_EESD_EESD_EESD_EESD_EEE7derivedEv, symObjAddr: 0xC06C, symBinAddr: 0x10000F4DC, symSize: 0x14 }
  - { offsetInCU: 0x38493, offset: 0x38493, size: 0x8, addend: 0x0, symName: __ZN5Eigen13CwiseBinaryOpINS_8internal13scalar_sum_opIddEEKNS0_IS3_KNS0_IS3_KNS0_IS3_KNS0_IS3_KNS0_IS3_KNS0_IS3_KNS0_IS3_KNS0_INS1_17scalar_product_opIddEEKNS_12ArrayWrapperINS_6MatrixIdLin1ELin1ELi0ELin1ELin1EEEEESA_EESC_EESC_EESC_EESC_EESC_EESC_EESC_EESC_EC1ERSQ_RSC_RKS3_, symObjAddr: 0xC080, symBinAddr: 0x10000F4F0, symSize: 0x44 }
  - { offsetInCU: 0x384E7, offset: 0x384E7, size: 0x8, addend: 0x0, symName: __ZN5Eigen13CwiseBinaryOpINS_8internal13scalar_sum_opIddEEKNS0_IS3_KNS0_IS3_KNS0_IS3_KNS0_IS3_KNS0_IS3_KNS0_IS3_KNS0_IS3_KNS0_INS1_17scalar_product_opIddEEKNS_12ArrayWrapperINS_6MatrixIdLin1ELin1ELi0ELin1ELin1EEEEESA_EESC_EESC_EESC_EESC_EESC_EESC_EESC_EESC_EC2ERSQ_RSC_RKS3_, symObjAddr: 0xC0C4, symBinAddr: 0x10000F534, symSize: 0x104 }
  - { offsetInCU: 0x38540, offset: 0x38540, size: 0x8, addend: 0x0, symName: __ZN5Eigen17CwiseBinaryOpImplINS_8internal13scalar_sum_opIddEEKNS_13CwiseBinaryOpIS3_KNS4_IS3_KNS4_IS3_KNS4_IS3_KNS4_IS3_KNS4_IS3_KNS4_IS3_KNS4_INS1_17scalar_product_opIddEEKNS_12ArrayWrapperINS_6MatrixIdLin1ELin1ELi0ELin1ELin1EEEEESB_EESD_EESD_EESD_EESD_EESD_EESD_EESD_EESD_NS_5DenseEEC2Ev, symObjAddr: 0xC1C8, symBinAddr: 0x10000F638, symSize: 0x2C }
  - { offsetInCU: 0x3856C, offset: 0x3856C, size: 0x8, addend: 0x0, symName: __ZN5Eigen13CwiseBinaryOpINS_8internal13scalar_sum_opIddEEKNS0_IS3_KNS0_IS3_KNS0_IS3_KNS0_IS3_KNS0_IS3_KNS0_IS3_KNS0_INS1_17scalar_product_opIddEEKNS_12ArrayWrapperINS_6MatrixIdLin1ELin1ELi0ELin1ELin1EEEEESA_EESC_EESC_EESC_EESC_EESC_EESC_EESC_EC1ERKSP_, symObjAddr: 0xC1F4, symBinAddr: 0x10000F664, symSize: 0x34 }
  - { offsetInCU: 0x385A1, offset: 0x385A1, size: 0x8, addend: 0x0, symName: __ZNK5Eigen13CwiseBinaryOpINS_8internal13scalar_sum_opIddEEKNS0_IS3_KNS0_IS3_KNS0_IS3_KNS0_IS3_KNS0_IS3_KNS0_IS3_KNS0_INS1_17scalar_product_opIddEEKNS_12ArrayWrapperINS_6MatrixIdLin1ELin1ELi0ELin1ELin1EEEEESA_EESC_EESC_EESC_EESC_EESC_EESC_EESC_E4rowsEv, symObjAddr: 0xC228, symBinAddr: 0x10000F698, symSize: 0x28 }
  - { offsetInCU: 0x385C7, offset: 0x385C7, size: 0x8, addend: 0x0, symName: __ZNK5Eigen13CwiseBinaryOpINS_8internal13scalar_sum_opIddEEKNS0_IS3_KNS0_IS3_KNS0_IS3_KNS0_IS3_KNS0_IS3_KNS0_IS3_KNS0_INS1_17scalar_product_opIddEEKNS_12ArrayWrapperINS_6MatrixIdLin1ELin1ELi0ELin1ELin1EEEEESA_EESC_EESC_EESC_EESC_EESC_EESC_EESC_E4colsEv, symObjAddr: 0xC250, symBinAddr: 0x10000F6C0, symSize: 0x28 }
  - { offsetInCU: 0x385ED, offset: 0x385ED, size: 0x8, addend: 0x0, symName: __ZN5Eigen9ArrayBaseINS_13CwiseBinaryOpINS_8internal13scalar_sum_opIddEEKNS1_IS4_KNS1_IS4_KNS1_IS4_KNS1_IS4_KNS1_IS4_KNS1_IS4_KNS1_IS4_KNS1_INS2_17scalar_product_opIddEEKNS_12ArrayWrapperINS_6MatrixIdLin1ELin1ELi0ELin1ELin1EEEEESB_EESD_EESD_EESD_EESD_EESD_EESD_EESD_EESD_EEEC2Ev, symObjAddr: 0xC278, symBinAddr: 0x10000F6E8, symSize: 0x2C }
  - { offsetInCU: 0x38617, offset: 0x38617, size: 0x8, addend: 0x0, symName: __ZN5Eigen9DenseBaseINS_13CwiseBinaryOpINS_8internal13scalar_sum_opIddEEKNS1_IS4_KNS1_IS4_KNS1_IS4_KNS1_IS4_KNS1_IS4_KNS1_IS4_KNS1_IS4_KNS1_INS2_17scalar_product_opIddEEKNS_12ArrayWrapperINS_6MatrixIdLin1ELin1ELi0ELin1ELin1EEEEESB_EESD_EESD_EESD_EESD_EESD_EESD_EESD_EESD_EEEC2Ev, symObjAddr: 0xC2A4, symBinAddr: 0x10000F714, symSize: 0x14 }
  - { offsetInCU: 0x38641, offset: 0x38641, size: 0x8, addend: 0x0, symName: __ZN5Eigen13CwiseBinaryOpINS_8internal13scalar_sum_opIddEEKNS0_IS3_KNS0_IS3_KNS0_IS3_KNS0_IS3_KNS0_IS3_KNS0_IS3_KNS0_INS1_17scalar_product_opIddEEKNS_12ArrayWrapperINS_6MatrixIdLin1ELin1ELi0ELin1ELin1EEEEESA_EESC_EESC_EESC_EESC_EESC_EESC_EESC_EC2ERKSP_, symObjAddr: 0xC2B8, symBinAddr: 0x10000F728, symSize: 0x64 }
  - { offsetInCU: 0x38676, offset: 0x38676, size: 0x8, addend: 0x0, symName: __ZNK5Eigen9EigenBaseINS_13CwiseBinaryOpINS_8internal13scalar_sum_opIddEEKNS1_IS4_KNS1_IS4_KNS1_IS4_KNS1_IS4_KNS1_IS4_KNS1_IS4_KNS1_IS4_KNS1_INS2_17scalar_product_opIddEEKNS_12ArrayWrapperINS_6MatrixIdLin1ELin1ELi0ELin1ELin1EEEEESB_EESD_EESD_EESD_EESD_EESD_EESD_EESD_EESD_EEE7derivedEv, symObjAddr: 0xC31C, symBinAddr: 0x10000F78C, symSize: 0x14 }
  - { offsetInCU: 0x3869C, offset: 0x3869C, size: 0x8, addend: 0x0, symName: __ZN5Eigen13CwiseBinaryOpINS_8internal13scalar_sum_opIddEEKNS0_IS3_KNS0_IS3_KNS0_IS3_KNS0_IS3_KNS0_IS3_KNS0_IS3_KNS0_IS3_KNS0_IS3_KNS0_INS1_17scalar_product_opIddEEKNS_12ArrayWrapperINS_6MatrixIdLin1ELin1ELi0ELin1ELin1EEEEESA_EESC_EESC_EESC_EESC_EESC_EESC_EESC_EESC_EESC_EC1ERSS_RSC_RKS3_, symObjAddr: 0xC330, symBinAddr: 0x10000F7A0, symSize: 0x44 }
  - { offsetInCU: 0x386F0, offset: 0x386F0, size: 0x8, addend: 0x0, symName: __ZN5Eigen13CwiseBinaryOpINS_8internal13scalar_sum_opIddEEKNS0_IS3_KNS0_IS3_KNS0_IS3_KNS0_IS3_KNS0_IS3_KNS0_IS3_KNS0_IS3_KNS0_IS3_KNS0_INS1_17scalar_product_opIddEEKNS_12ArrayWrapperINS_6MatrixIdLin1ELin1ELi0ELin1ELin1EEEEESA_EESC_EESC_EESC_EESC_EESC_EESC_EESC_EESC_EESC_EC2ERSS_RSC_RKS3_, symObjAddr: 0xC374, symBinAddr: 0x10000F7E4, symSize: 0x104 }
  - { offsetInCU: 0x38749, offset: 0x38749, size: 0x8, addend: 0x0, symName: __ZN5Eigen17CwiseBinaryOpImplINS_8internal13scalar_sum_opIddEEKNS_13CwiseBinaryOpIS3_KNS4_IS3_KNS4_IS3_KNS4_IS3_KNS4_IS3_KNS4_IS3_KNS4_IS3_KNS4_IS3_KNS4_INS1_17scalar_product_opIddEEKNS_12ArrayWrapperINS_6MatrixIdLin1ELin1ELi0ELin1ELin1EEEEESB_EESD_EESD_EESD_EESD_EESD_EESD_EESD_EESD_EESD_NS_5DenseEEC2Ev, symObjAddr: 0xC478, symBinAddr: 0x10000F8E8, symSize: 0x2C }
  - { offsetInCU: 0x38775, offset: 0x38775, size: 0x8, addend: 0x0, symName: __ZN5Eigen13CwiseBinaryOpINS_8internal13scalar_sum_opIddEEKNS0_IS3_KNS0_IS3_KNS0_IS3_KNS0_IS3_KNS0_IS3_KNS0_IS3_KNS0_IS3_KNS0_INS1_17scalar_product_opIddEEKNS_12ArrayWrapperINS_6MatrixIdLin1ELin1ELi0ELin1ELin1EEEEESA_EESC_EESC_EESC_EESC_EESC_EESC_EESC_EESC_EC1ERKSR_, symObjAddr: 0xC4A4, symBinAddr: 0x10000F914, symSize: 0x34 }
  - { offsetInCU: 0x387AA, offset: 0x387AA, size: 0x8, addend: 0x0, symName: __ZNK5Eigen13CwiseBinaryOpINS_8internal13scalar_sum_opIddEEKNS0_IS3_KNS0_IS3_KNS0_IS3_KNS0_IS3_KNS0_IS3_KNS0_IS3_KNS0_IS3_KNS0_INS1_17scalar_product_opIddEEKNS_12ArrayWrapperINS_6MatrixIdLin1ELin1ELi0ELin1ELin1EEEEESA_EESC_EESC_EESC_EESC_EESC_EESC_EESC_EESC_E4rowsEv, symObjAddr: 0xC4D8, symBinAddr: 0x10000F948, symSize: 0x28 }
  - { offsetInCU: 0x387D0, offset: 0x387D0, size: 0x8, addend: 0x0, symName: __ZNK5Eigen13CwiseBinaryOpINS_8internal13scalar_sum_opIddEEKNS0_IS3_KNS0_IS3_KNS0_IS3_KNS0_IS3_KNS0_IS3_KNS0_IS3_KNS0_IS3_KNS0_INS1_17scalar_product_opIddEEKNS_12ArrayWrapperINS_6MatrixIdLin1ELin1ELi0ELin1ELin1EEEEESA_EESC_EESC_EESC_EESC_EESC_EESC_EESC_EESC_E4colsEv, symObjAddr: 0xC500, symBinAddr: 0x10000F970, symSize: 0x28 }
  - { offsetInCU: 0x387F6, offset: 0x387F6, size: 0x8, addend: 0x0, symName: __ZN5Eigen9ArrayBaseINS_13CwiseBinaryOpINS_8internal13scalar_sum_opIddEEKNS1_IS4_KNS1_IS4_KNS1_IS4_KNS1_IS4_KNS1_IS4_KNS1_IS4_KNS1_IS4_KNS1_IS4_KNS1_INS2_17scalar_product_opIddEEKNS_12ArrayWrapperINS_6MatrixIdLin1ELin1ELi0ELin1ELin1EEEEESB_EESD_EESD_EESD_EESD_EESD_EESD_EESD_EESD_EESD_EEEC2Ev, symObjAddr: 0xC528, symBinAddr: 0x10000F998, symSize: 0x2C }
  - { offsetInCU: 0x38820, offset: 0x38820, size: 0x8, addend: 0x0, symName: __ZN5Eigen9DenseBaseINS_13CwiseBinaryOpINS_8internal13scalar_sum_opIddEEKNS1_IS4_KNS1_IS4_KNS1_IS4_KNS1_IS4_KNS1_IS4_KNS1_IS4_KNS1_IS4_KNS1_IS4_KNS1_INS2_17scalar_product_opIddEEKNS_12ArrayWrapperINS_6MatrixIdLin1ELin1ELi0ELin1ELin1EEEEESB_EESD_EESD_EESD_EESD_EESD_EESD_EESD_EESD_EESD_EEEC2Ev, symObjAddr: 0xC554, symBinAddr: 0x10000F9C4, symSize: 0x14 }
  - { offsetInCU: 0x3884A, offset: 0x3884A, size: 0x8, addend: 0x0, symName: __ZN5Eigen13CwiseBinaryOpINS_8internal13scalar_sum_opIddEEKNS0_IS3_KNS0_IS3_KNS0_IS3_KNS0_IS3_KNS0_IS3_KNS0_IS3_KNS0_IS3_KNS0_INS1_17scalar_product_opIddEEKNS_12ArrayWrapperINS_6MatrixIdLin1ELin1ELi0ELin1ELin1EEEEESA_EESC_EESC_EESC_EESC_EESC_EESC_EESC_EESC_EC2ERKSR_, symObjAddr: 0xC568, symBinAddr: 0x10000F9D8, symSize: 0x64 }
  - { offsetInCU: 0x3887F, offset: 0x3887F, size: 0x8, addend: 0x0, symName: __ZNK5Eigen9EigenBaseINS_13CwiseBinaryOpINS_8internal13scalar_sum_opIddEEKNS1_IS4_KNS1_IS4_KNS1_IS4_KNS1_IS4_KNS1_IS4_KNS1_IS4_KNS1_IS4_KNS1_IS4_KNS1_INS2_17scalar_product_opIddEEKNS_12ArrayWrapperINS_6MatrixIdLin1ELin1ELi0ELin1ELin1EEEEESB_EESD_EESD_EESD_EESD_EESD_EESD_EESD_EESD_EESD_EEE7derivedEv, symObjAddr: 0xC5CC, symBinAddr: 0x10000FA3C, symSize: 0x14 }
  - { offsetInCU: 0x388A5, offset: 0x388A5, size: 0x8, addend: 0x0, symName: __ZN5Eigen13CwiseBinaryOpINS_8internal13scalar_sum_opIddEEKNS0_IS3_KNS0_IS3_KNS0_IS3_KNS0_IS3_KNS0_IS3_KNS0_IS3_KNS0_IS3_KNS0_IS3_KNS0_IS3_KNS0_INS1_17scalar_product_opIddEEKNS_12ArrayWrapperINS_6MatrixIdLin1ELin1ELi0ELin1ELin1EEEEESA_EESC_EESC_EESC_EESC_EESC_EESC_EESC_EESC_EESC_EESC_EC1ERSU_RSC_RKS3_, symObjAddr: 0xC5E0, symBinAddr: 0x10000FA50, symSize: 0x44 }
  - { offsetInCU: 0x388F9, offset: 0x388F9, size: 0x8, addend: 0x0, symName: __ZN5Eigen13CwiseBinaryOpINS_8internal13scalar_sum_opIddEEKNS0_IS3_KNS0_IS3_KNS0_IS3_KNS0_IS3_KNS0_IS3_KNS0_IS3_KNS0_IS3_KNS0_IS3_KNS0_IS3_KNS0_INS1_17scalar_product_opIddEEKNS_12ArrayWrapperINS_6MatrixIdLin1ELin1ELi0ELin1ELin1EEEEESA_EESC_EESC_EESC_EESC_EESC_EESC_EESC_EESC_EESC_EESC_EC2ERSU_RSC_RKS3_, symObjAddr: 0xC624, symBinAddr: 0x10000FA94, symSize: 0x104 }
  - { offsetInCU: 0x38952, offset: 0x38952, size: 0x8, addend: 0x0, symName: __ZN5Eigen17CwiseBinaryOpImplINS_8internal13scalar_sum_opIddEEKNS_13CwiseBinaryOpIS3_KNS4_IS3_KNS4_IS3_KNS4_IS3_KNS4_IS3_KNS4_IS3_KNS4_IS3_KNS4_IS3_KNS4_IS3_KNS4_INS1_17scalar_product_opIddEEKNS_12ArrayWrapperINS_6MatrixIdLin1ELin1ELi0ELin1ELin1EEEEESB_EESD_EESD_EESD_EESD_EESD_EESD_EESD_EESD_EESD_EESD_NS_5DenseEEC2Ev, symObjAddr: 0xC728, symBinAddr: 0x10000FB98, symSize: 0x2C }
  - { offsetInCU: 0x3897E, offset: 0x3897E, size: 0x8, addend: 0x0, symName: __ZN5Eigen13CwiseBinaryOpINS_8internal13scalar_sum_opIddEEKNS0_IS3_KNS0_IS3_KNS0_IS3_KNS0_IS3_KNS0_IS3_KNS0_IS3_KNS0_IS3_KNS0_IS3_KNS0_INS1_17scalar_product_opIddEEKNS_12ArrayWrapperINS_6MatrixIdLin1ELin1ELi0ELin1ELin1EEEEESA_EESC_EESC_EESC_EESC_EESC_EESC_EESC_EESC_EESC_EC1ERKST_, symObjAddr: 0xC754, symBinAddr: 0x10000FBC4, symSize: 0x34 }
  - { offsetInCU: 0x389B3, offset: 0x389B3, size: 0x8, addend: 0x0, symName: __ZNK5Eigen13CwiseBinaryOpINS_8internal13scalar_sum_opIddEEKNS0_IS3_KNS0_IS3_KNS0_IS3_KNS0_IS3_KNS0_IS3_KNS0_IS3_KNS0_IS3_KNS0_IS3_KNS0_INS1_17scalar_product_opIddEEKNS_12ArrayWrapperINS_6MatrixIdLin1ELin1ELi0ELin1ELin1EEEEESA_EESC_EESC_EESC_EESC_EESC_EESC_EESC_EESC_EESC_E4rowsEv, symObjAddr: 0xC788, symBinAddr: 0x10000FBF8, symSize: 0x28 }
  - { offsetInCU: 0x389D9, offset: 0x389D9, size: 0x8, addend: 0x0, symName: __ZNK5Eigen13CwiseBinaryOpINS_8internal13scalar_sum_opIddEEKNS0_IS3_KNS0_IS3_KNS0_IS3_KNS0_IS3_KNS0_IS3_KNS0_IS3_KNS0_IS3_KNS0_IS3_KNS0_INS1_17scalar_product_opIddEEKNS_12ArrayWrapperINS_6MatrixIdLin1ELin1ELi0ELin1ELin1EEEEESA_EESC_EESC_EESC_EESC_EESC_EESC_EESC_EESC_EESC_E4colsEv, symObjAddr: 0xC7B0, symBinAddr: 0x10000FC20, symSize: 0x28 }
  - { offsetInCU: 0x389FF, offset: 0x389FF, size: 0x8, addend: 0x0, symName: __ZN5Eigen9ArrayBaseINS_13CwiseBinaryOpINS_8internal13scalar_sum_opIddEEKNS1_IS4_KNS1_IS4_KNS1_IS4_KNS1_IS4_KNS1_IS4_KNS1_IS4_KNS1_IS4_KNS1_IS4_KNS1_IS4_KNS1_INS2_17scalar_product_opIddEEKNS_12ArrayWrapperINS_6MatrixIdLin1ELin1ELi0ELin1ELin1EEEEESB_EESD_EESD_EESD_EESD_EESD_EESD_EESD_EESD_EESD_EESD_EEEC2Ev, symObjAddr: 0xC7D8, symBinAddr: 0x10000FC48, symSize: 0x2C }
  - { offsetInCU: 0x38A29, offset: 0x38A29, size: 0x8, addend: 0x0, symName: __ZN5Eigen9DenseBaseINS_13CwiseBinaryOpINS_8internal13scalar_sum_opIddEEKNS1_IS4_KNS1_IS4_KNS1_IS4_KNS1_IS4_KNS1_IS4_KNS1_IS4_KNS1_IS4_KNS1_IS4_KNS1_IS4_KNS1_INS2_17scalar_product_opIddEEKNS_12ArrayWrapperINS_6MatrixIdLin1ELin1ELi0ELin1ELin1EEEEESB_EESD_EESD_EESD_EESD_EESD_EESD_EESD_EESD_EESD_EESD_EEEC2Ev, symObjAddr: 0xC804, symBinAddr: 0x10000FC74, symSize: 0x14 }
  - { offsetInCU: 0x38A53, offset: 0x38A53, size: 0x8, addend: 0x0, symName: __ZN5Eigen13CwiseBinaryOpINS_8internal13scalar_sum_opIddEEKNS0_IS3_KNS0_IS3_KNS0_IS3_KNS0_IS3_KNS0_IS3_KNS0_IS3_KNS0_IS3_KNS0_IS3_KNS0_INS1_17scalar_product_opIddEEKNS_12ArrayWrapperINS_6MatrixIdLin1ELin1ELi0ELin1ELin1EEEEESA_EESC_EESC_EESC_EESC_EESC_EESC_EESC_EESC_EESC_EC2ERKST_, symObjAddr: 0xC818, symBinAddr: 0x10000FC88, symSize: 0x64 }
  - { offsetInCU: 0x38A88, offset: 0x38A88, size: 0x8, addend: 0x0, symName: __ZNK5Eigen9EigenBaseINS_13CwiseBinaryOpINS_8internal13scalar_sum_opIddEEKNS1_IS4_KNS1_IS4_KNS1_IS4_KNS1_IS4_KNS1_IS4_KNS1_IS4_KNS1_IS4_KNS1_IS4_KNS1_IS4_KNS1_INS2_17scalar_product_opIddEEKNS_12ArrayWrapperINS_6MatrixIdLin1ELin1ELi0ELin1ELin1EEEEESB_EESD_EESD_EESD_EESD_EESD_EESD_EESD_EESD_EESD_EESD_EEE7derivedEv, symObjAddr: 0xC87C, symBinAddr: 0x10000FCEC, symSize: 0x14 }
  - { offsetInCU: 0x38AAE, offset: 0x38AAE, size: 0x8, addend: 0x0, symName: __ZN5Eigen13CwiseBinaryOpINS_8internal13scalar_sum_opIddEEKNS0_IS3_KNS0_IS3_KNS0_IS3_KNS0_IS3_KNS0_IS3_KNS0_IS3_KNS0_IS3_KNS0_IS3_KNS0_IS3_KNS0_IS3_KNS0_INS1_17scalar_product_opIddEEKNS_12ArrayWrapperINS_6MatrixIdLin1ELin1ELi0ELin1ELin1EEEEESA_EESC_EESC_EESC_EESC_EESC_EESC_EESC_EESC_EESC_EESC_EESC_EC1ERSW_RSC_RKS3_, symObjAddr: 0xC890, symBinAddr: 0x10000FD00, symSize: 0x44 }
  - { offsetInCU: 0x38B02, offset: 0x38B02, size: 0x8, addend: 0x0, symName: __ZN5Eigen13CwiseBinaryOpINS_8internal13scalar_sum_opIddEEKNS0_IS3_KNS0_IS3_KNS0_IS3_KNS0_IS3_KNS0_IS3_KNS0_IS3_KNS0_IS3_KNS0_IS3_KNS0_IS3_KNS0_IS3_KNS0_INS1_17scalar_product_opIddEEKNS_12ArrayWrapperINS_6MatrixIdLin1ELin1ELi0ELin1ELin1EEEEESA_EESC_EESC_EESC_EESC_EESC_EESC_EESC_EESC_EESC_EESC_EESC_EC2ERSW_RSC_RKS3_, symObjAddr: 0xC8D4, symBinAddr: 0x10000FD44, symSize: 0x104 }
  - { offsetInCU: 0x38B5B, offset: 0x38B5B, size: 0x8, addend: 0x0, symName: __ZN5Eigen17CwiseBinaryOpImplINS_8internal13scalar_sum_opIddEEKNS_13CwiseBinaryOpIS3_KNS4_IS3_KNS4_IS3_KNS4_IS3_KNS4_IS3_KNS4_IS3_KNS4_IS3_KNS4_IS3_KNS4_IS3_KNS4_IS3_KNS4_INS1_17scalar_product_opIddEEKNS_12ArrayWrapperINS_6MatrixIdLin1ELin1ELi0ELin1ELin1EEEEESB_EESD_EESD_EESD_EESD_EESD_EESD_EESD_EESD_EESD_EESD_EESD_NS_5DenseEEC2Ev, symObjAddr: 0xC9D8, symBinAddr: 0x10000FE48, symSize: 0x2C }
  - { offsetInCU: 0x38B87, offset: 0x38B87, size: 0x8, addend: 0x0, symName: __ZN5Eigen13CwiseBinaryOpINS_8internal13scalar_sum_opIddEEKNS0_IS3_KNS0_IS3_KNS0_IS3_KNS0_IS3_KNS0_IS3_KNS0_IS3_KNS0_IS3_KNS0_IS3_KNS0_IS3_KNS0_INS1_17scalar_product_opIddEEKNS_12ArrayWrapperINS_6MatrixIdLin1ELin1ELi0ELin1ELin1EEEEESA_EESC_EESC_EESC_EESC_EESC_EESC_EESC_EESC_EESC_EESC_EC1ERKSV_, symObjAddr: 0xCA04, symBinAddr: 0x10000FE74, symSize: 0x34 }
  - { offsetInCU: 0x38BBC, offset: 0x38BBC, size: 0x8, addend: 0x0, symName: __ZNK5Eigen13CwiseBinaryOpINS_8internal13scalar_sum_opIddEEKNS0_IS3_KNS0_IS3_KNS0_IS3_KNS0_IS3_KNS0_IS3_KNS0_IS3_KNS0_IS3_KNS0_IS3_KNS0_IS3_KNS0_INS1_17scalar_product_opIddEEKNS_12ArrayWrapperINS_6MatrixIdLin1ELin1ELi0ELin1ELin1EEEEESA_EESC_EESC_EESC_EESC_EESC_EESC_EESC_EESC_EESC_EESC_E4rowsEv, symObjAddr: 0xCA38, symBinAddr: 0x10000FEA8, symSize: 0x28 }
  - { offsetInCU: 0x38BE2, offset: 0x38BE2, size: 0x8, addend: 0x0, symName: __ZNK5Eigen13CwiseBinaryOpINS_8internal13scalar_sum_opIddEEKNS0_IS3_KNS0_IS3_KNS0_IS3_KNS0_IS3_KNS0_IS3_KNS0_IS3_KNS0_IS3_KNS0_IS3_KNS0_IS3_KNS0_INS1_17scalar_product_opIddEEKNS_12ArrayWrapperINS_6MatrixIdLin1ELin1ELi0ELin1ELin1EEEEESA_EESC_EESC_EESC_EESC_EESC_EESC_EESC_EESC_EESC_EESC_E4colsEv, symObjAddr: 0xCA60, symBinAddr: 0x10000FED0, symSize: 0x28 }
  - { offsetInCU: 0x38C08, offset: 0x38C08, size: 0x8, addend: 0x0, symName: __ZN5Eigen9ArrayBaseINS_13CwiseBinaryOpINS_8internal13scalar_sum_opIddEEKNS1_IS4_KNS1_IS4_KNS1_IS4_KNS1_IS4_KNS1_IS4_KNS1_IS4_KNS1_IS4_KNS1_IS4_KNS1_IS4_KNS1_IS4_KNS1_INS2_17scalar_product_opIddEEKNS_12ArrayWrapperINS_6MatrixIdLin1ELin1ELi0ELin1ELin1EEEEESB_EESD_EESD_EESD_EESD_EESD_EESD_EESD_EESD_EESD_EESD_EESD_EEEC2Ev, symObjAddr: 0xCA88, symBinAddr: 0x10000FEF8, symSize: 0x2C }
  - { offsetInCU: 0x38C32, offset: 0x38C32, size: 0x8, addend: 0x0, symName: __ZN5Eigen9DenseBaseINS_13CwiseBinaryOpINS_8internal13scalar_sum_opIddEEKNS1_IS4_KNS1_IS4_KNS1_IS4_KNS1_IS4_KNS1_IS4_KNS1_IS4_KNS1_IS4_KNS1_IS4_KNS1_IS4_KNS1_IS4_KNS1_INS2_17scalar_product_opIddEEKNS_12ArrayWrapperINS_6MatrixIdLin1ELin1ELi0ELin1ELin1EEEEESB_EESD_EESD_EESD_EESD_EESD_EESD_EESD_EESD_EESD_EESD_EESD_EEEC2Ev, symObjAddr: 0xCAB4, symBinAddr: 0x10000FF24, symSize: 0x14 }
  - { offsetInCU: 0x38C5C, offset: 0x38C5C, size: 0x8, addend: 0x0, symName: __ZN5Eigen13CwiseBinaryOpINS_8internal13scalar_sum_opIddEEKNS0_IS3_KNS0_IS3_KNS0_IS3_KNS0_IS3_KNS0_IS3_KNS0_IS3_KNS0_IS3_KNS0_IS3_KNS0_IS3_KNS0_INS1_17scalar_product_opIddEEKNS_12ArrayWrapperINS_6MatrixIdLin1ELin1ELi0ELin1ELin1EEEEESA_EESC_EESC_EESC_EESC_EESC_EESC_EESC_EESC_EESC_EESC_EC2ERKSV_, symObjAddr: 0xCAC8, symBinAddr: 0x10000FF38, symSize: 0x64 }
  - { offsetInCU: 0x38C91, offset: 0x38C91, size: 0x8, addend: 0x0, symName: __ZN5Eigen6MatrixIdLin1ELin1ELi0ELin1ELin1EEC2INS_13CwiseBinaryOpINS_8internal13scalar_sum_opIddEEKNS3_IS6_KNS3_IS6_KNS3_IS6_KNS3_IS6_KNS3_IS6_KNS3_IS6_KNS3_IS6_KNS3_IS6_KNS3_IS6_KNS3_IS6_KNS3_INS4_17scalar_product_opIddEEKNS_12ArrayWrapperIS1_EESB_EESD_EESD_EESD_EESD_EESD_EESD_EESD_EESD_EESD_EESD_EESD_EEEERKNS_9EigenBaseIT_EE, symObjAddr: 0xCB2C, symBinAddr: 0x10000FF9C, symSize: 0x40 }
  - { offsetInCU: 0x38CD3, offset: 0x38CD3, size: 0x8, addend: 0x0, symName: __ZNK5Eigen9EigenBaseINS_13CwiseBinaryOpINS_8internal13scalar_sum_opIddEEKNS1_IS4_KNS1_IS4_KNS1_IS4_KNS1_IS4_KNS1_IS4_KNS1_IS4_KNS1_IS4_KNS1_IS4_KNS1_IS4_KNS1_IS4_KNS1_INS2_17scalar_product_opIddEEKNS_12ArrayWrapperINS_6MatrixIdLin1ELin1ELi0ELin1ELin1EEEEESB_EESD_EESD_EESD_EESD_EESD_EESD_EESD_EESD_EESD_EESD_EESD_EEE7derivedEv, symObjAddr: 0xCB6C, symBinAddr: 0x10000FFDC, symSize: 0x14 }
  - { offsetInCU: 0x38CF9, offset: 0x38CF9, size: 0x8, addend: 0x0, symName: __ZN5Eigen15PlainObjectBaseINS_6MatrixIdLin1ELin1ELi0ELin1ELin1EEEEC2INS_13CwiseBinaryOpINS_8internal13scalar_sum_opIddEEKNS5_IS8_KNS5_IS8_KNS5_IS8_KNS5_IS8_KNS5_IS8_KNS5_IS8_KNS5_IS8_KNS5_IS8_KNS5_IS8_KNS5_IS8_KNS5_INS6_17scalar_product_opIddEEKNS_12ArrayWrapperIS2_EESD_EESF_EESF_EESF_EESF_EESF_EESF_EESF_EESF_EESF_EESF_EESF_EEEERKNS_9DenseBaseIT_EE, symObjAddr: 0xCB80, symBinAddr: 0x10000FFF0, symSize: 0x88 }
  - { offsetInCU: 0x38D3B, offset: 0x38D3B, size: 0x8, addend: 0x0, symName: __ZN5Eigen15PlainObjectBaseINS_6MatrixIdLin1ELin1ELi0ELin1ELin1EEEE10resizeLikeINS_13CwiseBinaryOpINS_8internal13scalar_sum_opIddEEKNS5_IS8_KNS5_IS8_KNS5_IS8_KNS5_IS8_KNS5_IS8_KNS5_IS8_KNS5_IS8_KNS5_IS8_KNS5_IS8_KNS5_IS8_KNS5_INS6_17scalar_product_opIddEEKNS_12ArrayWrapperIS2_EESD_EESF_EESF_EESF_EESF_EESF_EESF_EESF_EESF_EESF_EESF_EESF_EEEEvRKNS_9EigenBaseIT_EE, symObjAddr: 0xCC08, symBinAddr: 0x100010078, symSize: 0x11C }
  - { offsetInCU: 0x38DCF, offset: 0x38DCF, size: 0x8, addend: 0x0, symName: __ZN5Eigen15PlainObjectBaseINS_6MatrixIdLin1ELin1ELi0ELin1ELin1EEEE12_set_noaliasINS_13CwiseBinaryOpINS_8internal13scalar_sum_opIddEEKNS5_IS8_KNS5_IS8_KNS5_IS8_KNS5_IS8_KNS5_IS8_KNS5_IS8_KNS5_IS8_KNS5_IS8_KNS5_IS8_KNS5_IS8_KNS5_INS6_17scalar_product_opIddEEKNS_12ArrayWrapperIS2_EESD_EESF_EESF_EESF_EESF_EESF_EESF_EESF_EESF_EESF_EESF_EESF_EEEERS2_RKNS_9DenseBaseIT_EE, symObjAddr: 0xCD24, symBinAddr: 0x100010194, symSize: 0x60 }
  - { offsetInCU: 0x38E0D, offset: 0x38E0D, size: 0x8, addend: 0x0, symName: __ZNK5Eigen13CwiseBinaryOpINS_8internal13scalar_sum_opIddEEKNS0_IS3_KNS0_IS3_KNS0_IS3_KNS0_IS3_KNS0_IS3_KNS0_IS3_KNS0_IS3_KNS0_IS3_KNS0_IS3_KNS0_IS3_KNS0_INS1_17scalar_product_opIddEEKNS_12ArrayWrapperINS_6MatrixIdLin1ELin1ELi0ELin1ELin1EEEEESA_EESC_EESC_EESC_EESC_EESC_EESC_EESC_EESC_EESC_EESC_EESC_E4rowsEv, symObjAddr: 0xCD84, symBinAddr: 0x1000101F4, symSize: 0x28 }
  - { offsetInCU: 0x38E33, offset: 0x38E33, size: 0x8, addend: 0x0, symName: __ZNK5Eigen13CwiseBinaryOpINS_8internal13scalar_sum_opIddEEKNS0_IS3_KNS0_IS3_KNS0_IS3_KNS0_IS3_KNS0_IS3_KNS0_IS3_KNS0_IS3_KNS0_IS3_KNS0_IS3_KNS0_IS3_KNS0_INS1_17scalar_product_opIddEEKNS_12ArrayWrapperINS_6MatrixIdLin1ELin1ELi0ELin1ELin1EEEEESA_EESC_EESC_EESC_EESC_EESC_EESC_EESC_EESC_EESC_EESC_EESC_E4colsEv, symObjAddr: 0xCDAC, symBinAddr: 0x10001021C, symSize: 0x28 }
  - { offsetInCU: 0x38E59, offset: 0x38E59, size: 0x8, addend: 0x0, symName: __ZN5Eigen8internal10AssignmentINS_6MatrixIdLin1ELin1ELi0ELin1ELin1EEENS_13CwiseBinaryOpINS0_13scalar_sum_opIddEEKNS4_IS6_KNS4_IS6_KNS4_IS6_KNS4_IS6_KNS4_IS6_KNS4_IS6_KNS4_IS6_KNS4_IS6_KNS4_IS6_KNS4_IS6_KNS4_INS0_17scalar_product_opIddEEKNS_12ArrayWrapperIS3_EESB_EESD_EESD_EESD_EESD_EESD_EESD_EESD_EESD_EESD_EESD_EESD_EENS0_9assign_opIddEENS0_11Dense2DenseEvE3runERS3_RKSY_RKS10_, symObjAddr: 0xCE10, symBinAddr: 0x100010280, symSize: 0x40 }
  - { offsetInCU: 0x38E9B, offset: 0x38E9B, size: 0x8, addend: 0x0, symName: __ZN5Eigen8internal27checkTransposeAliasing_implINS_6MatrixIdLin1ELin1ELi0ELin1ELin1EEENS_13CwiseBinaryOpINS0_13scalar_sum_opIddEEKNS4_IS6_KNS4_IS6_KNS4_IS6_KNS4_IS6_KNS4_IS6_KNS4_IS6_KNS4_IS6_KNS4_IS6_KNS4_IS6_KNS4_IS6_KNS4_INS0_17scalar_product_opIddEEKNS_12ArrayWrapperIS3_EESB_EESD_EESD_EESD_EESD_EESD_EESD_EESD_EESD_EESD_EESD_EESD_EELb0EE3runERKS3_RKSY_, symObjAddr: 0xCFA0, symBinAddr: 0x100010410, symSize: 0x14 }
  - { offsetInCU: 0x38EC6, offset: 0x38EC6, size: 0x8, addend: 0x0, symName: __ZN5Eigen8internal9evaluatorINS_13CwiseBinaryOpINS0_13scalar_sum_opIddEEKNS2_IS4_KNS2_IS4_KNS2_IS4_KNS2_IS4_KNS2_IS4_KNS2_IS4_KNS2_IS4_KNS2_IS4_KNS2_IS4_KNS2_IS4_KNS2_INS0_17scalar_product_opIddEEKNS_12ArrayWrapperINS_6MatrixIdLin1ELin1ELi0ELin1ELin1EEEEESB_EESD_EESD_EESD_EESD_EESD_EESD_EESD_EESD_EESD_EESD_EESD_EEEC1ERKSY_, symObjAddr: 0xCFB4, symBinAddr: 0x100010424, symSize: 0x34 }
  - { offsetInCU: 0x38EFF, offset: 0x38EFF, size: 0x8, addend: 0x0, symName: __ZN5Eigen8internal31generic_dense_assignment_kernelINS0_9evaluatorINS_6MatrixIdLin1ELin1ELi0ELin1ELin1EEEEENS2_INS_13CwiseBinaryOpINS0_13scalar_sum_opIddEEKNS6_IS8_KNS6_IS8_KNS6_IS8_KNS6_IS8_KNS6_IS8_KNS6_IS8_KNS6_IS8_KNS6_IS8_KNS6_IS8_KNS6_IS8_KNS6_INS0_17scalar_product_opIddEEKNS_12ArrayWrapperIS4_EESD_EESF_EESF_EESF_EESF_EESF_EESF_EESF_EESF_EESF_EESF_EESF_EEEENS0_9assign_opIddEELi0EEC1ERS5_RKS11_RKS13_RS4_, symObjAddr: 0xD0E0, symBinAddr: 0x100010550, symSize: 0x4C }
  - { offsetInCU: 0x38F65, offset: 0x38F65, size: 0x8, addend: 0x0, symName: __ZN5Eigen8internal9evaluatorINS_13CwiseBinaryOpINS0_13scalar_sum_opIddEEKNS2_IS4_KNS2_IS4_KNS2_IS4_KNS2_IS4_KNS2_IS4_KNS2_IS4_KNS2_IS4_KNS2_IS4_KNS2_IS4_KNS2_IS4_KNS2_INS0_17scalar_product_opIddEEKNS_12ArrayWrapperINS_6MatrixIdLin1ELin1ELi0ELin1ELin1EEEEESB_EESD_EESD_EESD_EESD_EESD_EESD_EESD_EESD_EESD_EESD_EESD_EEED1Ev, symObjAddr: 0xD1D4, symBinAddr: 0x100010644, symSize: 0x2C }
  - { offsetInCU: 0x38F92, offset: 0x38F92, size: 0x8, addend: 0x0, symName: __ZN5Eigen8internal9evaluatorINS_13CwiseBinaryOpINS0_13scalar_sum_opIddEEKNS2_IS4_KNS2_IS4_KNS2_IS4_KNS2_IS4_KNS2_IS4_KNS2_IS4_KNS2_IS4_KNS2_IS4_KNS2_IS4_KNS2_IS4_KNS2_INS0_17scalar_product_opIddEEKNS_12ArrayWrapperINS_6MatrixIdLin1ELin1ELi0ELin1ELin1EEEEESB_EESD_EESD_EESD_EESD_EESD_EESD_EESD_EESD_EESD_EESD_EESD_EEEC2ERKSY_, symObjAddr: 0xD200, symBinAddr: 0x100010670, symSize: 0x34 }
  - { offsetInCU: 0x38FCB, offset: 0x38FCB, size: 0x8, addend: 0x0, symName: __ZN5Eigen8internal16binary_evaluatorINS_13CwiseBinaryOpINS0_13scalar_sum_opIddEEKNS2_IS4_KNS2_IS4_KNS2_IS4_KNS2_IS4_KNS2_IS4_KNS2_IS4_KNS2_IS4_KNS2_IS4_KNS2_IS4_KNS2_IS4_KNS2_INS0_17scalar_product_opIddEEKNS_12ArrayWrapperINS_6MatrixIdLin1ELin1ELi0ELin1ELin1EEEEESB_EESD_EESD_EESD_EESD_EESD_EESD_EESD_EESD_EESD_EESD_EESD_EENS0_10IndexBasedESZ_ddEC2ERKSY_, symObjAddr: 0xD234, symBinAddr: 0x1000106A4, symSize: 0x6C }
  - { offsetInCU: 0x39004, offset: 0x39004, size: 0x8, addend: 0x0, symName: __ZN5Eigen8internal14evaluator_baseINS_13CwiseBinaryOpINS0_13scalar_sum_opIddEEKNS2_IS4_KNS2_IS4_KNS2_IS4_KNS2_IS4_KNS2_IS4_KNS2_IS4_KNS2_IS4_KNS2_IS4_KNS2_IS4_KNS2_IS4_KNS2_INS0_17scalar_product_opIddEEKNS_12ArrayWrapperINS_6MatrixIdLin1ELin1ELi0ELin1ELin1EEEEESB_EESD_EESD_EESD_EESD_EESD_EESD_EESD_EESD_EESD_EESD_EESD_EEEC2Ev, symObjAddr: 0xD2A0, symBinAddr: 0x100010710, symSize: 0x14 }
  - { offsetInCU: 0x3902E, offset: 0x3902E, size: 0x8, addend: 0x0, symName: __ZN5Eigen8internal16binary_evaluatorINS_13CwiseBinaryOpINS0_13scalar_sum_opIddEEKNS2_IS4_KNS2_IS4_KNS2_IS4_KNS2_IS4_KNS2_IS4_KNS2_IS4_KNS2_IS4_KNS2_IS4_KNS2_IS4_KNS2_IS4_KNS2_INS0_17scalar_product_opIddEEKNS_12ArrayWrapperINS_6MatrixIdLin1ELin1ELi0ELin1ELin1EEEEESB_EESD_EESD_EESD_EESD_EESD_EESD_EESD_EESD_EESD_EESD_EESD_EENS0_10IndexBasedESZ_ddE4DataC1ERKSY_, symObjAddr: 0xD2B4, symBinAddr: 0x100010724, symSize: 0x34 }
  - { offsetInCU: 0x39067, offset: 0x39067, size: 0x8, addend: 0x0, symName: __ZN5Eigen8internal14evaluator_baseINS_13CwiseBinaryOpINS0_13scalar_sum_opIddEEKNS2_IS4_KNS2_IS4_KNS2_IS4_KNS2_IS4_KNS2_IS4_KNS2_IS4_KNS2_IS4_KNS2_IS4_KNS2_IS4_KNS2_IS4_KNS2_INS0_17scalar_product_opIddEEKNS_12ArrayWrapperINS_6MatrixIdLin1ELin1ELi0ELin1ELin1EEEEESB_EESD_EESD_EESD_EESD_EESD_EESD_EESD_EESD_EESD_EESD_EESD_EEED2Ev, symObjAddr: 0xD2E8, symBinAddr: 0x100010758, symSize: 0x14 }
  - { offsetInCU: 0x39091, offset: 0x39091, size: 0x8, addend: 0x0, symName: __ZN5Eigen8internal16binary_evaluatorINS_13CwiseBinaryOpINS0_13scalar_sum_opIddEEKNS2_IS4_KNS2_IS4_KNS2_IS4_KNS2_IS4_KNS2_IS4_KNS2_IS4_KNS2_IS4_KNS2_IS4_KNS2_IS4_KNS2_IS4_KNS2_INS0_17scalar_product_opIddEEKNS_12ArrayWrapperINS_6MatrixIdLin1ELin1ELi0ELin1ELin1EEEEESB_EESD_EESD_EESD_EESD_EESD_EESD_EESD_EESD_EESD_EESD_EESD_EENS0_10IndexBasedESZ_ddE4DataC2ERKSY_, symObjAddr: 0xD2FC, symBinAddr: 0x10001076C, symSize: 0xB0 }
  - { offsetInCU: 0x390CA, offset: 0x390CA, size: 0x8, addend: 0x0, symName: __ZNK5Eigen13CwiseBinaryOpINS_8internal13scalar_sum_opIddEEKNS0_IS3_KNS0_IS3_KNS0_IS3_KNS0_IS3_KNS0_IS3_KNS0_IS3_KNS0_IS3_KNS0_IS3_KNS0_IS3_KNS0_IS3_KNS0_INS1_17scalar_product_opIddEEKNS_12ArrayWrapperINS_6MatrixIdLin1ELin1ELi0ELin1ELin1EEEEESA_EESC_EESC_EESC_EESC_EESC_EESC_EESC_EESC_EESC_EESC_EESC_E7functorEv, symObjAddr: 0xD3AC, symBinAddr: 0x10001081C, symSize: 0x18 }
  - { offsetInCU: 0x390F0, offset: 0x390F0, size: 0x8, addend: 0x0, symName: __ZNK5Eigen13CwiseBinaryOpINS_8internal13scalar_sum_opIddEEKNS0_IS3_KNS0_IS3_KNS0_IS3_KNS0_IS3_KNS0_IS3_KNS0_IS3_KNS0_IS3_KNS0_IS3_KNS0_IS3_KNS0_IS3_KNS0_INS1_17scalar_product_opIddEEKNS_12ArrayWrapperINS_6MatrixIdLin1ELin1ELi0ELin1ELin1EEEEESA_EESC_EESC_EESC_EESC_EESC_EESC_EESC_EESC_EESC_EESC_EESC_E3lhsEv, symObjAddr: 0xD3C4, symBinAddr: 0x100010834, symSize: 0x18 }
  - { offsetInCU: 0x39116, offset: 0x39116, size: 0x8, addend: 0x0, symName: __ZN5Eigen8internal9evaluatorIKNS_13CwiseBinaryOpINS0_13scalar_sum_opIddEEKNS2_IS4_KNS2_IS4_KNS2_IS4_KNS2_IS4_KNS2_IS4_KNS2_IS4_KNS2_IS4_KNS2_IS4_KNS2_IS4_KNS2_INS0_17scalar_product_opIddEEKNS_12ArrayWrapperINS_6MatrixIdLin1ELin1ELi0ELin1ELin1EEEEESB_EESD_EESD_EESD_EESD_EESD_EESD_EESD_EESD_EESD_EESD_EEEC1ERSX_, symObjAddr: 0xD3DC, symBinAddr: 0x10001084C, symSize: 0x34 }
  - { offsetInCU: 0x3914E, offset: 0x3914E, size: 0x8, addend: 0x0, symName: __ZNK5Eigen13CwiseBinaryOpINS_8internal13scalar_sum_opIddEEKNS0_IS3_KNS0_IS3_KNS0_IS3_KNS0_IS3_KNS0_IS3_KNS0_IS3_KNS0_IS3_KNS0_IS3_KNS0_IS3_KNS0_IS3_KNS0_INS1_17scalar_product_opIddEEKNS_12ArrayWrapperINS_6MatrixIdLin1ELin1ELi0ELin1ELin1EEEEESA_EESC_EESC_EESC_EESC_EESC_EESC_EESC_EESC_EESC_EESC_EESC_E3rhsEv, symObjAddr: 0xD410, symBinAddr: 0x100010880, symSize: 0x18 }
  - { offsetInCU: 0x39174, offset: 0x39174, size: 0x8, addend: 0x0, symName: __ZN5Eigen8internal9evaluatorIKNS_13CwiseBinaryOpINS0_13scalar_sum_opIddEEKNS2_IS4_KNS2_IS4_KNS2_IS4_KNS2_IS4_KNS2_IS4_KNS2_IS4_KNS2_IS4_KNS2_IS4_KNS2_IS4_KNS2_INS0_17scalar_product_opIddEEKNS_12ArrayWrapperINS_6MatrixIdLin1ELin1ELi0ELin1ELin1EEEEESB_EESD_EESD_EESD_EESD_EESD_EESD_EESD_EESD_EESD_EESD_EEED1Ev, symObjAddr: 0xD428, symBinAddr: 0x100010898, symSize: 0x2C }
  - { offsetInCU: 0x391A0, offset: 0x391A0, size: 0x8, addend: 0x0, symName: __ZN5Eigen8internal9evaluatorIKNS_13CwiseBinaryOpINS0_13scalar_sum_opIddEEKNS2_IS4_KNS2_IS4_KNS2_IS4_KNS2_IS4_KNS2_IS4_KNS2_IS4_KNS2_IS4_KNS2_IS4_KNS2_IS4_KNS2_INS0_17scalar_product_opIddEEKNS_12ArrayWrapperINS_6MatrixIdLin1ELin1ELi0ELin1ELin1EEEEESB_EESD_EESD_EESD_EESD_EESD_EESD_EESD_EESD_EESD_EESD_EEEC2ERSX_, symObjAddr: 0xD454, symBinAddr: 0x1000108C4, symSize: 0x34 }
  - { offsetInCU: 0x391D8, offset: 0x391D8, size: 0x8, addend: 0x0, symName: __ZN5Eigen8internal9evaluatorINS_13CwiseBinaryOpINS0_13scalar_sum_opIddEEKNS2_IS4_KNS2_IS4_KNS2_IS4_KNS2_IS4_KNS2_IS4_KNS2_IS4_KNS2_IS4_KNS2_IS4_KNS2_IS4_KNS2_INS0_17scalar_product_opIddEEKNS_12ArrayWrapperINS_6MatrixIdLin1ELin1ELi0ELin1ELin1EEEEESB_EESD_EESD_EESD_EESD_EESD_EESD_EESD_EESD_EESD_EESD_EEEC2ERKSW_, symObjAddr: 0xD488, symBinAddr: 0x1000108F8, symSize: 0x34 }
  - { offsetInCU: 0x39211, offset: 0x39211, size: 0x8, addend: 0x0, symName: __ZN5Eigen8internal16binary_evaluatorINS_13CwiseBinaryOpINS0_13scalar_sum_opIddEEKNS2_IS4_KNS2_IS4_KNS2_IS4_KNS2_IS4_KNS2_IS4_KNS2_IS4_KNS2_IS4_KNS2_IS4_KNS2_IS4_KNS2_INS0_17scalar_product_opIddEEKNS_12ArrayWrapperINS_6MatrixIdLin1ELin1ELi0ELin1ELin1EEEEESB_EESD_EESD_EESD_EESD_EESD_EESD_EESD_EESD_EESD_EESD_EENS0_10IndexBasedESX_ddEC2ERKSW_, symObjAddr: 0xD4BC, symBinAddr: 0x10001092C, symSize: 0x6C }
  - { offsetInCU: 0x3924A, offset: 0x3924A, size: 0x8, addend: 0x0, symName: __ZN5Eigen8internal14evaluator_baseINS_13CwiseBinaryOpINS0_13scalar_sum_opIddEEKNS2_IS4_KNS2_IS4_KNS2_IS4_KNS2_IS4_KNS2_IS4_KNS2_IS4_KNS2_IS4_KNS2_IS4_KNS2_IS4_KNS2_INS0_17scalar_product_opIddEEKNS_12ArrayWrapperINS_6MatrixIdLin1ELin1ELi0ELin1ELin1EEEEESB_EESD_EESD_EESD_EESD_EESD_EESD_EESD_EESD_EESD_EESD_EEEC2Ev, symObjAddr: 0xD528, symBinAddr: 0x100010998, symSize: 0x14 }
  - { offsetInCU: 0x39274, offset: 0x39274, size: 0x8, addend: 0x0, symName: __ZN5Eigen8internal16binary_evaluatorINS_13CwiseBinaryOpINS0_13scalar_sum_opIddEEKNS2_IS4_KNS2_IS4_KNS2_IS4_KNS2_IS4_KNS2_IS4_KNS2_IS4_KNS2_IS4_KNS2_IS4_KNS2_IS4_KNS2_INS0_17scalar_product_opIddEEKNS_12ArrayWrapperINS_6MatrixIdLin1ELin1ELi0ELin1ELin1EEEEESB_EESD_EESD_EESD_EESD_EESD_EESD_EESD_EESD_EESD_EESD_EENS0_10IndexBasedESX_ddE4DataC1ERKSW_, symObjAddr: 0xD53C, symBinAddr: 0x1000109AC, symSize: 0x34 }
  - { offsetInCU: 0x392AD, offset: 0x392AD, size: 0x8, addend: 0x0, symName: __ZN5Eigen8internal14evaluator_baseINS_13CwiseBinaryOpINS0_13scalar_sum_opIddEEKNS2_IS4_KNS2_IS4_KNS2_IS4_KNS2_IS4_KNS2_IS4_KNS2_IS4_KNS2_IS4_KNS2_IS4_KNS2_IS4_KNS2_INS0_17scalar_product_opIddEEKNS_12ArrayWrapperINS_6MatrixIdLin1ELin1ELi0ELin1ELin1EEEEESB_EESD_EESD_EESD_EESD_EESD_EESD_EESD_EESD_EESD_EESD_EEED2Ev, symObjAddr: 0xD570, symBinAddr: 0x1000109E0, symSize: 0x14 }
  - { offsetInCU: 0x392D7, offset: 0x392D7, size: 0x8, addend: 0x0, symName: __ZN5Eigen8internal16binary_evaluatorINS_13CwiseBinaryOpINS0_13scalar_sum_opIddEEKNS2_IS4_KNS2_IS4_KNS2_IS4_KNS2_IS4_KNS2_IS4_KNS2_IS4_KNS2_IS4_KNS2_IS4_KNS2_IS4_KNS2_INS0_17scalar_product_opIddEEKNS_12ArrayWrapperINS_6MatrixIdLin1ELin1ELi0ELin1ELin1EEEEESB_EESD_EESD_EESD_EESD_EESD_EESD_EESD_EESD_EESD_EESD_EENS0_10IndexBasedESX_ddE4DataC2ERKSW_, symObjAddr: 0xD584, symBinAddr: 0x1000109F4, symSize: 0xB0 }
  - { offsetInCU: 0x39310, offset: 0x39310, size: 0x8, addend: 0x0, symName: __ZNK5Eigen13CwiseBinaryOpINS_8internal13scalar_sum_opIddEEKNS0_IS3_KNS0_IS3_KNS0_IS3_KNS0_IS3_KNS0_IS3_KNS0_IS3_KNS0_IS3_KNS0_IS3_KNS0_IS3_KNS0_INS1_17scalar_product_opIddEEKNS_12ArrayWrapperINS_6MatrixIdLin1ELin1ELi0ELin1ELin1EEEEESA_EESC_EESC_EESC_EESC_EESC_EESC_EESC_EESC_EESC_EESC_E7functorEv, symObjAddr: 0xD634, symBinAddr: 0x100010AA4, symSize: 0x18 }
  - { offsetInCU: 0x39336, offset: 0x39336, size: 0x8, addend: 0x0, symName: __ZNK5Eigen13CwiseBinaryOpINS_8internal13scalar_sum_opIddEEKNS0_IS3_KNS0_IS3_KNS0_IS3_KNS0_IS3_KNS0_IS3_KNS0_IS3_KNS0_IS3_KNS0_IS3_KNS0_IS3_KNS0_INS1_17scalar_product_opIddEEKNS_12ArrayWrapperINS_6MatrixIdLin1ELin1ELi0ELin1ELin1EEEEESA_EESC_EESC_EESC_EESC_EESC_EESC_EESC_EESC_EESC_EESC_E3lhsEv, symObjAddr: 0xD64C, symBinAddr: 0x100010ABC, symSize: 0x18 }
  - { offsetInCU: 0x3935C, offset: 0x3935C, size: 0x8, addend: 0x0, symName: __ZN5Eigen8internal9evaluatorIKNS_13CwiseBinaryOpINS0_13scalar_sum_opIddEEKNS2_IS4_KNS2_IS4_KNS2_IS4_KNS2_IS4_KNS2_IS4_KNS2_IS4_KNS2_IS4_KNS2_IS4_KNS2_INS0_17scalar_product_opIddEEKNS_12ArrayWrapperINS_6MatrixIdLin1ELin1ELi0ELin1ELin1EEEEESB_EESD_EESD_EESD_EESD_EESD_EESD_EESD_EESD_EESD_EEEC1ERSV_, symObjAddr: 0xD664, symBinAddr: 0x100010AD4, symSize: 0x34 }
  - { offsetInCU: 0x39394, offset: 0x39394, size: 0x8, addend: 0x0, symName: __ZNK5Eigen13CwiseBinaryOpINS_8internal13scalar_sum_opIddEEKNS0_IS3_KNS0_IS3_KNS0_IS3_KNS0_IS3_KNS0_IS3_KNS0_IS3_KNS0_IS3_KNS0_IS3_KNS0_IS3_KNS0_INS1_17scalar_product_opIddEEKNS_12ArrayWrapperINS_6MatrixIdLin1ELin1ELi0ELin1ELin1EEEEESA_EESC_EESC_EESC_EESC_EESC_EESC_EESC_EESC_EESC_EESC_E3rhsEv, symObjAddr: 0xD698, symBinAddr: 0x100010B08, symSize: 0x18 }
  - { offsetInCU: 0x393BA, offset: 0x393BA, size: 0x8, addend: 0x0, symName: __ZN5Eigen8internal9evaluatorIKNS_13CwiseBinaryOpINS0_13scalar_sum_opIddEEKNS2_IS4_KNS2_IS4_KNS2_IS4_KNS2_IS4_KNS2_IS4_KNS2_IS4_KNS2_IS4_KNS2_IS4_KNS2_INS0_17scalar_product_opIddEEKNS_12ArrayWrapperINS_6MatrixIdLin1ELin1ELi0ELin1ELin1EEEEESB_EESD_EESD_EESD_EESD_EESD_EESD_EESD_EESD_EESD_EEED1Ev, symObjAddr: 0xD6B0, symBinAddr: 0x100010B20, symSize: 0x2C }
  - { offsetInCU: 0x393E6, offset: 0x393E6, size: 0x8, addend: 0x0, symName: __ZN5Eigen8internal9evaluatorIKNS_13CwiseBinaryOpINS0_13scalar_sum_opIddEEKNS2_IS4_KNS2_IS4_KNS2_IS4_KNS2_IS4_KNS2_IS4_KNS2_IS4_KNS2_IS4_KNS2_IS4_KNS2_INS0_17scalar_product_opIddEEKNS_12ArrayWrapperINS_6MatrixIdLin1ELin1ELi0ELin1ELin1EEEEESB_EESD_EESD_EESD_EESD_EESD_EESD_EESD_EESD_EESD_EEEC2ERSV_, symObjAddr: 0xD6DC, symBinAddr: 0x100010B4C, symSize: 0x34 }
  - { offsetInCU: 0x3941E, offset: 0x3941E, size: 0x8, addend: 0x0, symName: __ZN5Eigen8internal9evaluatorINS_13CwiseBinaryOpINS0_13scalar_sum_opIddEEKNS2_IS4_KNS2_IS4_KNS2_IS4_KNS2_IS4_KNS2_IS4_KNS2_IS4_KNS2_IS4_KNS2_IS4_KNS2_INS0_17scalar_product_opIddEEKNS_12ArrayWrapperINS_6MatrixIdLin1ELin1ELi0ELin1ELin1EEEEESB_EESD_EESD_EESD_EESD_EESD_EESD_EESD_EESD_EESD_EEEC2ERKSU_, symObjAddr: 0xD710, symBinAddr: 0x100010B80, symSize: 0x34 }
  - { offsetInCU: 0x39457, offset: 0x39457, size: 0x8, addend: 0x0, symName: __ZN5Eigen8internal16binary_evaluatorINS_13CwiseBinaryOpINS0_13scalar_sum_opIddEEKNS2_IS4_KNS2_IS4_KNS2_IS4_KNS2_IS4_KNS2_IS4_KNS2_IS4_KNS2_IS4_KNS2_IS4_KNS2_INS0_17scalar_product_opIddEEKNS_12ArrayWrapperINS_6MatrixIdLin1ELin1ELi0ELin1ELin1EEEEESB_EESD_EESD_EESD_EESD_EESD_EESD_EESD_EESD_EESD_EENS0_10IndexBasedESV_ddEC2ERKSU_, symObjAddr: 0xD744, symBinAddr: 0x100010BB4, symSize: 0x6C }
  - { offsetInCU: 0x39490, offset: 0x39490, size: 0x8, addend: 0x0, symName: __ZN5Eigen8internal14evaluator_baseINS_13CwiseBinaryOpINS0_13scalar_sum_opIddEEKNS2_IS4_KNS2_IS4_KNS2_IS4_KNS2_IS4_KNS2_IS4_KNS2_IS4_KNS2_IS4_KNS2_IS4_KNS2_INS0_17scalar_product_opIddEEKNS_12ArrayWrapperINS_6MatrixIdLin1ELin1ELi0ELin1ELin1EEEEESB_EESD_EESD_EESD_EESD_EESD_EESD_EESD_EESD_EESD_EEEC2Ev, symObjAddr: 0xD7B0, symBinAddr: 0x100010C20, symSize: 0x14 }
  - { offsetInCU: 0x394BA, offset: 0x394BA, size: 0x8, addend: 0x0, symName: __ZN5Eigen8internal16binary_evaluatorINS_13CwiseBinaryOpINS0_13scalar_sum_opIddEEKNS2_IS4_KNS2_IS4_KNS2_IS4_KNS2_IS4_KNS2_IS4_KNS2_IS4_KNS2_IS4_KNS2_IS4_KNS2_INS0_17scalar_product_opIddEEKNS_12ArrayWrapperINS_6MatrixIdLin1ELin1ELi0ELin1ELin1EEEEESB_EESD_EESD_EESD_EESD_EESD_EESD_EESD_EESD_EESD_EENS0_10IndexBasedESV_ddE4DataC1ERKSU_, symObjAddr: 0xD7C4, symBinAddr: 0x100010C34, symSize: 0x34 }
  - { offsetInCU: 0x394F3, offset: 0x394F3, size: 0x8, addend: 0x0, symName: __ZN5Eigen8internal14evaluator_baseINS_13CwiseBinaryOpINS0_13scalar_sum_opIddEEKNS2_IS4_KNS2_IS4_KNS2_IS4_KNS2_IS4_KNS2_IS4_KNS2_IS4_KNS2_IS4_KNS2_IS4_KNS2_INS0_17scalar_product_opIddEEKNS_12ArrayWrapperINS_6MatrixIdLin1ELin1ELi0ELin1ELin1EEEEESB_EESD_EESD_EESD_EESD_EESD_EESD_EESD_EESD_EESD_EEED2Ev, symObjAddr: 0xD7F8, symBinAddr: 0x100010C68, symSize: 0x14 }
  - { offsetInCU: 0x3951D, offset: 0x3951D, size: 0x8, addend: 0x0, symName: __ZN5Eigen8internal16binary_evaluatorINS_13CwiseBinaryOpINS0_13scalar_sum_opIddEEKNS2_IS4_KNS2_IS4_KNS2_IS4_KNS2_IS4_KNS2_IS4_KNS2_IS4_KNS2_IS4_KNS2_IS4_KNS2_INS0_17scalar_product_opIddEEKNS_12ArrayWrapperINS_6MatrixIdLin1ELin1ELi0ELin1ELin1EEEEESB_EESD_EESD_EESD_EESD_EESD_EESD_EESD_EESD_EESD_EENS0_10IndexBasedESV_ddE4DataC2ERKSU_, symObjAddr: 0xD80C, symBinAddr: 0x100010C7C, symSize: 0xB0 }
  - { offsetInCU: 0x39556, offset: 0x39556, size: 0x8, addend: 0x0, symName: __ZNK5Eigen13CwiseBinaryOpINS_8internal13scalar_sum_opIddEEKNS0_IS3_KNS0_IS3_KNS0_IS3_KNS0_IS3_KNS0_IS3_KNS0_IS3_KNS0_IS3_KNS0_IS3_KNS0_INS1_17scalar_product_opIddEEKNS_12ArrayWrapperINS_6MatrixIdLin1ELin1ELi0ELin1ELin1EEEEESA_EESC_EESC_EESC_EESC_EESC_EESC_EESC_EESC_EESC_E7functorEv, symObjAddr: 0xD8BC, symBinAddr: 0x100010D2C, symSize: 0x18 }
  - { offsetInCU: 0x3957C, offset: 0x3957C, size: 0x8, addend: 0x0, symName: __ZNK5Eigen13CwiseBinaryOpINS_8internal13scalar_sum_opIddEEKNS0_IS3_KNS0_IS3_KNS0_IS3_KNS0_IS3_KNS0_IS3_KNS0_IS3_KNS0_IS3_KNS0_IS3_KNS0_INS1_17scalar_product_opIddEEKNS_12ArrayWrapperINS_6MatrixIdLin1ELin1ELi0ELin1ELin1EEEEESA_EESC_EESC_EESC_EESC_EESC_EESC_EESC_EESC_EESC_E3lhsEv, symObjAddr: 0xD8D4, symBinAddr: 0x100010D44, symSize: 0x18 }
  - { offsetInCU: 0x395A2, offset: 0x395A2, size: 0x8, addend: 0x0, symName: __ZN5Eigen8internal9evaluatorIKNS_13CwiseBinaryOpINS0_13scalar_sum_opIddEEKNS2_IS4_KNS2_IS4_KNS2_IS4_KNS2_IS4_KNS2_IS4_KNS2_IS4_KNS2_IS4_KNS2_INS0_17scalar_product_opIddEEKNS_12ArrayWrapperINS_6MatrixIdLin1ELin1ELi0ELin1ELin1EEEEESB_EESD_EESD_EESD_EESD_EESD_EESD_EESD_EESD_EEEC1ERST_, symObjAddr: 0xD8EC, symBinAddr: 0x100010D5C, symSize: 0x34 }
  - { offsetInCU: 0x395DA, offset: 0x395DA, size: 0x8, addend: 0x0, symName: __ZNK5Eigen13CwiseBinaryOpINS_8internal13scalar_sum_opIddEEKNS0_IS3_KNS0_IS3_KNS0_IS3_KNS0_IS3_KNS0_IS3_KNS0_IS3_KNS0_IS3_KNS0_IS3_KNS0_INS1_17scalar_product_opIddEEKNS_12ArrayWrapperINS_6MatrixIdLin1ELin1ELi0ELin1ELin1EEEEESA_EESC_EESC_EESC_EESC_EESC_EESC_EESC_EESC_EESC_E3rhsEv, symObjAddr: 0xD920, symBinAddr: 0x100010D90, symSize: 0x18 }
  - { offsetInCU: 0x39600, offset: 0x39600, size: 0x8, addend: 0x0, symName: __ZN5Eigen8internal9evaluatorIKNS_13CwiseBinaryOpINS0_13scalar_sum_opIddEEKNS2_IS4_KNS2_IS4_KNS2_IS4_KNS2_IS4_KNS2_IS4_KNS2_IS4_KNS2_IS4_KNS2_INS0_17scalar_product_opIddEEKNS_12ArrayWrapperINS_6MatrixIdLin1ELin1ELi0ELin1ELin1EEEEESB_EESD_EESD_EESD_EESD_EESD_EESD_EESD_EESD_EEED1Ev, symObjAddr: 0xD938, symBinAddr: 0x100010DA8, symSize: 0x2C }
  - { offsetInCU: 0x3962C, offset: 0x3962C, size: 0x8, addend: 0x0, symName: __ZN5Eigen8internal9evaluatorIKNS_13CwiseBinaryOpINS0_13scalar_sum_opIddEEKNS2_IS4_KNS2_IS4_KNS2_IS4_KNS2_IS4_KNS2_IS4_KNS2_IS4_KNS2_IS4_KNS2_INS0_17scalar_product_opIddEEKNS_12ArrayWrapperINS_6MatrixIdLin1ELin1ELi0ELin1ELin1EEEEESB_EESD_EESD_EESD_EESD_EESD_EESD_EESD_EESD_EEEC2ERST_, symObjAddr: 0xD964, symBinAddr: 0x100010DD4, symSize: 0x34 }
  - { offsetInCU: 0x39664, offset: 0x39664, size: 0x8, addend: 0x0, symName: __ZN5Eigen8internal9evaluatorINS_13CwiseBinaryOpINS0_13scalar_sum_opIddEEKNS2_IS4_KNS2_IS4_KNS2_IS4_KNS2_IS4_KNS2_IS4_KNS2_IS4_KNS2_IS4_KNS2_INS0_17scalar_product_opIddEEKNS_12ArrayWrapperINS_6MatrixIdLin1ELin1ELi0ELin1ELin1EEEEESB_EESD_EESD_EESD_EESD_EESD_EESD_EESD_EESD_EEEC2ERKSS_, symObjAddr: 0xD998, symBinAddr: 0x100010E08, symSize: 0x34 }
  - { offsetInCU: 0x3969D, offset: 0x3969D, size: 0x8, addend: 0x0, symName: __ZN5Eigen8internal16binary_evaluatorINS_13CwiseBinaryOpINS0_13scalar_sum_opIddEEKNS2_IS4_KNS2_IS4_KNS2_IS4_KNS2_IS4_KNS2_IS4_KNS2_IS4_KNS2_IS4_KNS2_INS0_17scalar_product_opIddEEKNS_12ArrayWrapperINS_6MatrixIdLin1ELin1ELi0ELin1ELin1EEEEESB_EESD_EESD_EESD_EESD_EESD_EESD_EESD_EESD_EENS0_10IndexBasedEST_ddEC2ERKSS_, symObjAddr: 0xD9CC, symBinAddr: 0x100010E3C, symSize: 0x6C }
  - { offsetInCU: 0x396D6, offset: 0x396D6, size: 0x8, addend: 0x0, symName: __ZN5Eigen8internal14evaluator_baseINS_13CwiseBinaryOpINS0_13scalar_sum_opIddEEKNS2_IS4_KNS2_IS4_KNS2_IS4_KNS2_IS4_KNS2_IS4_KNS2_IS4_KNS2_IS4_KNS2_INS0_17scalar_product_opIddEEKNS_12ArrayWrapperINS_6MatrixIdLin1ELin1ELi0ELin1ELin1EEEEESB_EESD_EESD_EESD_EESD_EESD_EESD_EESD_EESD_EEEC2Ev, symObjAddr: 0xDA38, symBinAddr: 0x100010EA8, symSize: 0x14 }
  - { offsetInCU: 0x39700, offset: 0x39700, size: 0x8, addend: 0x0, symName: __ZN5Eigen8internal16binary_evaluatorINS_13CwiseBinaryOpINS0_13scalar_sum_opIddEEKNS2_IS4_KNS2_IS4_KNS2_IS4_KNS2_IS4_KNS2_IS4_KNS2_IS4_KNS2_IS4_KNS2_INS0_17scalar_product_opIddEEKNS_12ArrayWrapperINS_6MatrixIdLin1ELin1ELi0ELin1ELin1EEEEESB_EESD_EESD_EESD_EESD_EESD_EESD_EESD_EESD_EENS0_10IndexBasedEST_ddE4DataC1ERKSS_, symObjAddr: 0xDA4C, symBinAddr: 0x100010EBC, symSize: 0x34 }
  - { offsetInCU: 0x39739, offset: 0x39739, size: 0x8, addend: 0x0, symName: __ZN5Eigen8internal14evaluator_baseINS_13CwiseBinaryOpINS0_13scalar_sum_opIddEEKNS2_IS4_KNS2_IS4_KNS2_IS4_KNS2_IS4_KNS2_IS4_KNS2_IS4_KNS2_IS4_KNS2_INS0_17scalar_product_opIddEEKNS_12ArrayWrapperINS_6MatrixIdLin1ELin1ELi0ELin1ELin1EEEEESB_EESD_EESD_EESD_EESD_EESD_EESD_EESD_EESD_EEED2Ev, symObjAddr: 0xDA80, symBinAddr: 0x100010EF0, symSize: 0x14 }
  - { offsetInCU: 0x39763, offset: 0x39763, size: 0x8, addend: 0x0, symName: __ZN5Eigen8internal16binary_evaluatorINS_13CwiseBinaryOpINS0_13scalar_sum_opIddEEKNS2_IS4_KNS2_IS4_KNS2_IS4_KNS2_IS4_KNS2_IS4_KNS2_IS4_KNS2_IS4_KNS2_INS0_17scalar_product_opIddEEKNS_12ArrayWrapperINS_6MatrixIdLin1ELin1ELi0ELin1ELin1EEEEESB_EESD_EESD_EESD_EESD_EESD_EESD_EESD_EESD_EENS0_10IndexBasedEST_ddE4DataC2ERKSS_, symObjAddr: 0xDA94, symBinAddr: 0x100010F04, symSize: 0xB0 }
  - { offsetInCU: 0x3979C, offset: 0x3979C, size: 0x8, addend: 0x0, symName: __ZNK5Eigen13CwiseBinaryOpINS_8internal13scalar_sum_opIddEEKNS0_IS3_KNS0_IS3_KNS0_IS3_KNS0_IS3_KNS0_IS3_KNS0_IS3_KNS0_IS3_KNS0_INS1_17scalar_product_opIddEEKNS_12ArrayWrapperINS_6MatrixIdLin1ELin1ELi0ELin1ELin1EEEEESA_EESC_EESC_EESC_EESC_EESC_EESC_EESC_EESC_E7functorEv, symObjAddr: 0xDB44, symBinAddr: 0x100010FB4, symSize: 0x18 }
  - { offsetInCU: 0x397C2, offset: 0x397C2, size: 0x8, addend: 0x0, symName: __ZNK5Eigen13CwiseBinaryOpINS_8internal13scalar_sum_opIddEEKNS0_IS3_KNS0_IS3_KNS0_IS3_KNS0_IS3_KNS0_IS3_KNS0_IS3_KNS0_IS3_KNS0_INS1_17scalar_product_opIddEEKNS_12ArrayWrapperINS_6MatrixIdLin1ELin1ELi0ELin1ELin1EEEEESA_EESC_EESC_EESC_EESC_EESC_EESC_EESC_EESC_E3lhsEv, symObjAddr: 0xDB5C, symBinAddr: 0x100010FCC, symSize: 0x18 }
  - { offsetInCU: 0x397E8, offset: 0x397E8, size: 0x8, addend: 0x0, symName: __ZN5Eigen8internal9evaluatorIKNS_13CwiseBinaryOpINS0_13scalar_sum_opIddEEKNS2_IS4_KNS2_IS4_KNS2_IS4_KNS2_IS4_KNS2_IS4_KNS2_IS4_KNS2_INS0_17scalar_product_opIddEEKNS_12ArrayWrapperINS_6MatrixIdLin1ELin1ELi0ELin1ELin1EEEEESB_EESD_EESD_EESD_EESD_EESD_EESD_EESD_EEEC1ERSR_, symObjAddr: 0xDB74, symBinAddr: 0x100010FE4, symSize: 0x34 }
  - { offsetInCU: 0x39820, offset: 0x39820, size: 0x8, addend: 0x0, symName: __ZNK5Eigen13CwiseBinaryOpINS_8internal13scalar_sum_opIddEEKNS0_IS3_KNS0_IS3_KNS0_IS3_KNS0_IS3_KNS0_IS3_KNS0_IS3_KNS0_IS3_KNS0_INS1_17scalar_product_opIddEEKNS_12ArrayWrapperINS_6MatrixIdLin1ELin1ELi0ELin1ELin1EEEEESA_EESC_EESC_EESC_EESC_EESC_EESC_EESC_EESC_E3rhsEv, symObjAddr: 0xDBA8, symBinAddr: 0x100011018, symSize: 0x18 }
  - { offsetInCU: 0x39846, offset: 0x39846, size: 0x8, addend: 0x0, symName: __ZN5Eigen8internal9evaluatorIKNS_13CwiseBinaryOpINS0_13scalar_sum_opIddEEKNS2_IS4_KNS2_IS4_KNS2_IS4_KNS2_IS4_KNS2_IS4_KNS2_IS4_KNS2_INS0_17scalar_product_opIddEEKNS_12ArrayWrapperINS_6MatrixIdLin1ELin1ELi0ELin1ELin1EEEEESB_EESD_EESD_EESD_EESD_EESD_EESD_EESD_EEED1Ev, symObjAddr: 0xDBC0, symBinAddr: 0x100011030, symSize: 0x2C }
  - { offsetInCU: 0x39872, offset: 0x39872, size: 0x8, addend: 0x0, symName: __ZN5Eigen8internal9evaluatorIKNS_13CwiseBinaryOpINS0_13scalar_sum_opIddEEKNS2_IS4_KNS2_IS4_KNS2_IS4_KNS2_IS4_KNS2_IS4_KNS2_IS4_KNS2_INS0_17scalar_product_opIddEEKNS_12ArrayWrapperINS_6MatrixIdLin1ELin1ELi0ELin1ELin1EEEEESB_EESD_EESD_EESD_EESD_EESD_EESD_EESD_EEEC2ERSR_, symObjAddr: 0xDBEC, symBinAddr: 0x10001105C, symSize: 0x34 }
  - { offsetInCU: 0x398AA, offset: 0x398AA, size: 0x8, addend: 0x0, symName: __ZN5Eigen8internal9evaluatorINS_13CwiseBinaryOpINS0_13scalar_sum_opIddEEKNS2_IS4_KNS2_IS4_KNS2_IS4_KNS2_IS4_KNS2_IS4_KNS2_IS4_KNS2_INS0_17scalar_product_opIddEEKNS_12ArrayWrapperINS_6MatrixIdLin1ELin1ELi0ELin1ELin1EEEEESB_EESD_EESD_EESD_EESD_EESD_EESD_EESD_EEEC2ERKSQ_, symObjAddr: 0xDC20, symBinAddr: 0x100011090, symSize: 0x34 }
  - { offsetInCU: 0x398E3, offset: 0x398E3, size: 0x8, addend: 0x0, symName: __ZN5Eigen8internal16binary_evaluatorINS_13CwiseBinaryOpINS0_13scalar_sum_opIddEEKNS2_IS4_KNS2_IS4_KNS2_IS4_KNS2_IS4_KNS2_IS4_KNS2_IS4_KNS2_INS0_17scalar_product_opIddEEKNS_12ArrayWrapperINS_6MatrixIdLin1ELin1ELi0ELin1ELin1EEEEESB_EESD_EESD_EESD_EESD_EESD_EESD_EESD_EENS0_10IndexBasedESR_ddEC2ERKSQ_, symObjAddr: 0xDC54, symBinAddr: 0x1000110C4, symSize: 0x6C }
  - { offsetInCU: 0x3991C, offset: 0x3991C, size: 0x8, addend: 0x0, symName: __ZN5Eigen8internal14evaluator_baseINS_13CwiseBinaryOpINS0_13scalar_sum_opIddEEKNS2_IS4_KNS2_IS4_KNS2_IS4_KNS2_IS4_KNS2_IS4_KNS2_IS4_KNS2_INS0_17scalar_product_opIddEEKNS_12ArrayWrapperINS_6MatrixIdLin1ELin1ELi0ELin1ELin1EEEEESB_EESD_EESD_EESD_EESD_EESD_EESD_EESD_EEEC2Ev, symObjAddr: 0xDCC0, symBinAddr: 0x100011130, symSize: 0x14 }
  - { offsetInCU: 0x39946, offset: 0x39946, size: 0x8, addend: 0x0, symName: __ZN5Eigen8internal16binary_evaluatorINS_13CwiseBinaryOpINS0_13scalar_sum_opIddEEKNS2_IS4_KNS2_IS4_KNS2_IS4_KNS2_IS4_KNS2_IS4_KNS2_IS4_KNS2_INS0_17scalar_product_opIddEEKNS_12ArrayWrapperINS_6MatrixIdLin1ELin1ELi0ELin1ELin1EEEEESB_EESD_EESD_EESD_EESD_EESD_EESD_EESD_EENS0_10IndexBasedESR_ddE4DataC1ERKSQ_, symObjAddr: 0xDCD4, symBinAddr: 0x100011144, symSize: 0x34 }
  - { offsetInCU: 0x3997F, offset: 0x3997F, size: 0x8, addend: 0x0, symName: __ZN5Eigen8internal14evaluator_baseINS_13CwiseBinaryOpINS0_13scalar_sum_opIddEEKNS2_IS4_KNS2_IS4_KNS2_IS4_KNS2_IS4_KNS2_IS4_KNS2_IS4_KNS2_INS0_17scalar_product_opIddEEKNS_12ArrayWrapperINS_6MatrixIdLin1ELin1ELi0ELin1ELin1EEEEESB_EESD_EESD_EESD_EESD_EESD_EESD_EESD_EEED2Ev, symObjAddr: 0xDD08, symBinAddr: 0x100011178, symSize: 0x14 }
  - { offsetInCU: 0x399A9, offset: 0x399A9, size: 0x8, addend: 0x0, symName: __ZN5Eigen8internal16binary_evaluatorINS_13CwiseBinaryOpINS0_13scalar_sum_opIddEEKNS2_IS4_KNS2_IS4_KNS2_IS4_KNS2_IS4_KNS2_IS4_KNS2_IS4_KNS2_INS0_17scalar_product_opIddEEKNS_12ArrayWrapperINS_6MatrixIdLin1ELin1ELi0ELin1ELin1EEEEESB_EESD_EESD_EESD_EESD_EESD_EESD_EESD_EENS0_10IndexBasedESR_ddE4DataC2ERKSQ_, symObjAddr: 0xDD1C, symBinAddr: 0x10001118C, symSize: 0xB0 }
  - { offsetInCU: 0x399E2, offset: 0x399E2, size: 0x8, addend: 0x0, symName: __ZNK5Eigen13CwiseBinaryOpINS_8internal13scalar_sum_opIddEEKNS0_IS3_KNS0_IS3_KNS0_IS3_KNS0_IS3_KNS0_IS3_KNS0_IS3_KNS0_INS1_17scalar_product_opIddEEKNS_12ArrayWrapperINS_6MatrixIdLin1ELin1ELi0ELin1ELin1EEEEESA_EESC_EESC_EESC_EESC_EESC_EESC_EESC_E7functorEv, symObjAddr: 0xDDCC, symBinAddr: 0x10001123C, symSize: 0x18 }
  - { offsetInCU: 0x39A08, offset: 0x39A08, size: 0x8, addend: 0x0, symName: __ZNK5Eigen13CwiseBinaryOpINS_8internal13scalar_sum_opIddEEKNS0_IS3_KNS0_IS3_KNS0_IS3_KNS0_IS3_KNS0_IS3_KNS0_IS3_KNS0_INS1_17scalar_product_opIddEEKNS_12ArrayWrapperINS_6MatrixIdLin1ELin1ELi0ELin1ELin1EEEEESA_EESC_EESC_EESC_EESC_EESC_EESC_EESC_E3lhsEv, symObjAddr: 0xDDE4, symBinAddr: 0x100011254, symSize: 0x18 }
  - { offsetInCU: 0x39A2E, offset: 0x39A2E, size: 0x8, addend: 0x0, symName: __ZN5Eigen8internal9evaluatorIKNS_13CwiseBinaryOpINS0_13scalar_sum_opIddEEKNS2_IS4_KNS2_IS4_KNS2_IS4_KNS2_IS4_KNS2_IS4_KNS2_INS0_17scalar_product_opIddEEKNS_12ArrayWrapperINS_6MatrixIdLin1ELin1ELi0ELin1ELin1EEEEESB_EESD_EESD_EESD_EESD_EESD_EESD_EEEC1ERSP_, symObjAddr: 0xDDFC, symBinAddr: 0x10001126C, symSize: 0x34 }
  - { offsetInCU: 0x39A66, offset: 0x39A66, size: 0x8, addend: 0x0, symName: __ZNK5Eigen13CwiseBinaryOpINS_8internal13scalar_sum_opIddEEKNS0_IS3_KNS0_IS3_KNS0_IS3_KNS0_IS3_KNS0_IS3_KNS0_IS3_KNS0_INS1_17scalar_product_opIddEEKNS_12ArrayWrapperINS_6MatrixIdLin1ELin1ELi0ELin1ELin1EEEEESA_EESC_EESC_EESC_EESC_EESC_EESC_EESC_E3rhsEv, symObjAddr: 0xDE30, symBinAddr: 0x1000112A0, symSize: 0x18 }
  - { offsetInCU: 0x39A8C, offset: 0x39A8C, size: 0x8, addend: 0x0, symName: __ZN5Eigen8internal9evaluatorIKNS_13CwiseBinaryOpINS0_13scalar_sum_opIddEEKNS2_IS4_KNS2_IS4_KNS2_IS4_KNS2_IS4_KNS2_IS4_KNS2_INS0_17scalar_product_opIddEEKNS_12ArrayWrapperINS_6MatrixIdLin1ELin1ELi0ELin1ELin1EEEEESB_EESD_EESD_EESD_EESD_EESD_EESD_EEED1Ev, symObjAddr: 0xDE48, symBinAddr: 0x1000112B8, symSize: 0x2C }
  - { offsetInCU: 0x39AB8, offset: 0x39AB8, size: 0x8, addend: 0x0, symName: __ZN5Eigen8internal9evaluatorIKNS_13CwiseBinaryOpINS0_13scalar_sum_opIddEEKNS2_IS4_KNS2_IS4_KNS2_IS4_KNS2_IS4_KNS2_IS4_KNS2_INS0_17scalar_product_opIddEEKNS_12ArrayWrapperINS_6MatrixIdLin1ELin1ELi0ELin1ELin1EEEEESB_EESD_EESD_EESD_EESD_EESD_EESD_EEEC2ERSP_, symObjAddr: 0xDE74, symBinAddr: 0x1000112E4, symSize: 0x34 }
  - { offsetInCU: 0x39AF0, offset: 0x39AF0, size: 0x8, addend: 0x0, symName: __ZN5Eigen8internal9evaluatorINS_13CwiseBinaryOpINS0_13scalar_sum_opIddEEKNS2_IS4_KNS2_IS4_KNS2_IS4_KNS2_IS4_KNS2_IS4_KNS2_INS0_17scalar_product_opIddEEKNS_12ArrayWrapperINS_6MatrixIdLin1ELin1ELi0ELin1ELin1EEEEESB_EESD_EESD_EESD_EESD_EESD_EESD_EEEC2ERKSO_, symObjAddr: 0xDEA8, symBinAddr: 0x100011318, symSize: 0x34 }
  - { offsetInCU: 0x39B29, offset: 0x39B29, size: 0x8, addend: 0x0, symName: __ZN5Eigen8internal16binary_evaluatorINS_13CwiseBinaryOpINS0_13scalar_sum_opIddEEKNS2_IS4_KNS2_IS4_KNS2_IS4_KNS2_IS4_KNS2_IS4_KNS2_INS0_17scalar_product_opIddEEKNS_12ArrayWrapperINS_6MatrixIdLin1ELin1ELi0ELin1ELin1EEEEESB_EESD_EESD_EESD_EESD_EESD_EESD_EENS0_10IndexBasedESP_ddEC2ERKSO_, symObjAddr: 0xDEDC, symBinAddr: 0x10001134C, symSize: 0x6C }
  - { offsetInCU: 0x39B62, offset: 0x39B62, size: 0x8, addend: 0x0, symName: __ZN5Eigen8internal14evaluator_baseINS_13CwiseBinaryOpINS0_13scalar_sum_opIddEEKNS2_IS4_KNS2_IS4_KNS2_IS4_KNS2_IS4_KNS2_IS4_KNS2_INS0_17scalar_product_opIddEEKNS_12ArrayWrapperINS_6MatrixIdLin1ELin1ELi0ELin1ELin1EEEEESB_EESD_EESD_EESD_EESD_EESD_EESD_EEEC2Ev, symObjAddr: 0xDF48, symBinAddr: 0x1000113B8, symSize: 0x14 }
  - { offsetInCU: 0x39B8C, offset: 0x39B8C, size: 0x8, addend: 0x0, symName: __ZN5Eigen8internal16binary_evaluatorINS_13CwiseBinaryOpINS0_13scalar_sum_opIddEEKNS2_IS4_KNS2_IS4_KNS2_IS4_KNS2_IS4_KNS2_IS4_KNS2_INS0_17scalar_product_opIddEEKNS_12ArrayWrapperINS_6MatrixIdLin1ELin1ELi0ELin1ELin1EEEEESB_EESD_EESD_EESD_EESD_EESD_EESD_EENS0_10IndexBasedESP_ddE4DataC1ERKSO_, symObjAddr: 0xDF5C, symBinAddr: 0x1000113CC, symSize: 0x34 }
  - { offsetInCU: 0x39BC5, offset: 0x39BC5, size: 0x8, addend: 0x0, symName: __ZN5Eigen8internal14evaluator_baseINS_13CwiseBinaryOpINS0_13scalar_sum_opIddEEKNS2_IS4_KNS2_IS4_KNS2_IS4_KNS2_IS4_KNS2_IS4_KNS2_INS0_17scalar_product_opIddEEKNS_12ArrayWrapperINS_6MatrixIdLin1ELin1ELi0ELin1ELin1EEEEESB_EESD_EESD_EESD_EESD_EESD_EESD_EEED2Ev, symObjAddr: 0xDF90, symBinAddr: 0x100011400, symSize: 0x14 }
  - { offsetInCU: 0x39BEF, offset: 0x39BEF, size: 0x8, addend: 0x0, symName: __ZN5Eigen8internal16binary_evaluatorINS_13CwiseBinaryOpINS0_13scalar_sum_opIddEEKNS2_IS4_KNS2_IS4_KNS2_IS4_KNS2_IS4_KNS2_IS4_KNS2_INS0_17scalar_product_opIddEEKNS_12ArrayWrapperINS_6MatrixIdLin1ELin1ELi0ELin1ELin1EEEEESB_EESD_EESD_EESD_EESD_EESD_EESD_EENS0_10IndexBasedESP_ddE4DataC2ERKSO_, symObjAddr: 0xDFA4, symBinAddr: 0x100011414, symSize: 0xB0 }
  - { offsetInCU: 0x39C28, offset: 0x39C28, size: 0x8, addend: 0x0, symName: __ZNK5Eigen13CwiseBinaryOpINS_8internal13scalar_sum_opIddEEKNS0_IS3_KNS0_IS3_KNS0_IS3_KNS0_IS3_KNS0_IS3_KNS0_INS1_17scalar_product_opIddEEKNS_12ArrayWrapperINS_6MatrixIdLin1ELin1ELi0ELin1ELin1EEEEESA_EESC_EESC_EESC_EESC_EESC_EESC_E7functorEv, symObjAddr: 0xE054, symBinAddr: 0x1000114C4, symSize: 0x18 }
  - { offsetInCU: 0x39C4E, offset: 0x39C4E, size: 0x8, addend: 0x0, symName: __ZNK5Eigen13CwiseBinaryOpINS_8internal13scalar_sum_opIddEEKNS0_IS3_KNS0_IS3_KNS0_IS3_KNS0_IS3_KNS0_IS3_KNS0_INS1_17scalar_product_opIddEEKNS_12ArrayWrapperINS_6MatrixIdLin1ELin1ELi0ELin1ELin1EEEEESA_EESC_EESC_EESC_EESC_EESC_EESC_E3lhsEv, symObjAddr: 0xE06C, symBinAddr: 0x1000114DC, symSize: 0x18 }
  - { offsetInCU: 0x39C74, offset: 0x39C74, size: 0x8, addend: 0x0, symName: __ZN5Eigen8internal9evaluatorIKNS_13CwiseBinaryOpINS0_13scalar_sum_opIddEEKNS2_IS4_KNS2_IS4_KNS2_IS4_KNS2_IS4_KNS2_INS0_17scalar_product_opIddEEKNS_12ArrayWrapperINS_6MatrixIdLin1ELin1ELi0ELin1ELin1EEEEESB_EESD_EESD_EESD_EESD_EESD_EEEC1ERSN_, symObjAddr: 0xE084, symBinAddr: 0x1000114F4, symSize: 0x34 }
  - { offsetInCU: 0x39CAC, offset: 0x39CAC, size: 0x8, addend: 0x0, symName: __ZNK5Eigen13CwiseBinaryOpINS_8internal13scalar_sum_opIddEEKNS0_IS3_KNS0_IS3_KNS0_IS3_KNS0_IS3_KNS0_IS3_KNS0_INS1_17scalar_product_opIddEEKNS_12ArrayWrapperINS_6MatrixIdLin1ELin1ELi0ELin1ELin1EEEEESA_EESC_EESC_EESC_EESC_EESC_EESC_E3rhsEv, symObjAddr: 0xE0B8, symBinAddr: 0x100011528, symSize: 0x18 }
  - { offsetInCU: 0x39CD2, offset: 0x39CD2, size: 0x8, addend: 0x0, symName: __ZN5Eigen8internal9evaluatorIKNS_13CwiseBinaryOpINS0_13scalar_sum_opIddEEKNS2_IS4_KNS2_IS4_KNS2_IS4_KNS2_IS4_KNS2_INS0_17scalar_product_opIddEEKNS_12ArrayWrapperINS_6MatrixIdLin1ELin1ELi0ELin1ELin1EEEEESB_EESD_EESD_EESD_EESD_EESD_EEED1Ev, symObjAddr: 0xE0D0, symBinAddr: 0x100011540, symSize: 0x2C }
  - { offsetInCU: 0x39CFE, offset: 0x39CFE, size: 0x8, addend: 0x0, symName: __ZN5Eigen8internal9evaluatorIKNS_13CwiseBinaryOpINS0_13scalar_sum_opIddEEKNS2_IS4_KNS2_IS4_KNS2_IS4_KNS2_IS4_KNS2_INS0_17scalar_product_opIddEEKNS_12ArrayWrapperINS_6MatrixIdLin1ELin1ELi0ELin1ELin1EEEEESB_EESD_EESD_EESD_EESD_EESD_EEEC2ERSN_, symObjAddr: 0xE0FC, symBinAddr: 0x10001156C, symSize: 0x34 }
  - { offsetInCU: 0x39D36, offset: 0x39D36, size: 0x8, addend: 0x0, symName: __ZN5Eigen8internal9evaluatorIKNS_13CwiseBinaryOpINS0_13scalar_sum_opIddEEKNS2_IS4_KNS2_IS4_KNS2_IS4_KNS2_IS4_KNS2_INS0_17scalar_product_opIddEEKNS_12ArrayWrapperINS_6MatrixIdLin1ELin1ELi0ELin1ELin1EEEEESB_EESD_EESD_EESD_EESD_EESD_EEED2Ev, symObjAddr: 0xE130, symBinAddr: 0x1000115A0, symSize: 0x2C }
  - { offsetInCU: 0x39D62, offset: 0x39D62, size: 0x8, addend: 0x0, symName: __ZN5Eigen8internal9evaluatorIKNS_13CwiseBinaryOpINS0_13scalar_sum_opIddEEKNS2_IS4_KNS2_IS4_KNS2_IS4_KNS2_IS4_KNS2_IS4_KNS2_INS0_17scalar_product_opIddEEKNS_12ArrayWrapperINS_6MatrixIdLin1ELin1ELi0ELin1ELin1EEEEESB_EESD_EESD_EESD_EESD_EESD_EESD_EEED2Ev, symObjAddr: 0xE15C, symBinAddr: 0x1000115CC, symSize: 0x2C }
  - { offsetInCU: 0x39D8E, offset: 0x39D8E, size: 0x8, addend: 0x0, symName: __ZN5Eigen8internal9evaluatorINS_13CwiseBinaryOpINS0_13scalar_sum_opIddEEKNS2_IS4_KNS2_IS4_KNS2_IS4_KNS2_IS4_KNS2_IS4_KNS2_INS0_17scalar_product_opIddEEKNS_12ArrayWrapperINS_6MatrixIdLin1ELin1ELi0ELin1ELin1EEEEESB_EESD_EESD_EESD_EESD_EESD_EESD_EEED2Ev, symObjAddr: 0xE188, symBinAddr: 0x1000115F8, symSize: 0x2C }
  - { offsetInCU: 0x39DBB, offset: 0x39DBB, size: 0x8, addend: 0x0, symName: __ZN5Eigen8internal16binary_evaluatorINS_13CwiseBinaryOpINS0_13scalar_sum_opIddEEKNS2_IS4_KNS2_IS4_KNS2_IS4_KNS2_IS4_KNS2_IS4_KNS2_INS0_17scalar_product_opIddEEKNS_12ArrayWrapperINS_6MatrixIdLin1ELin1ELi0ELin1ELin1EEEEESB_EESD_EESD_EESD_EESD_EESD_EESD_EENS0_10IndexBasedESP_ddED2Ev, symObjAddr: 0xE1B4, symBinAddr: 0x100011624, symSize: 0x5C }
  - { offsetInCU: 0x39DE7, offset: 0x39DE7, size: 0x8, addend: 0x0, symName: __ZN5Eigen8internal16binary_evaluatorINS_13CwiseBinaryOpINS0_13scalar_sum_opIddEEKNS2_IS4_KNS2_IS4_KNS2_IS4_KNS2_IS4_KNS2_IS4_KNS2_INS0_17scalar_product_opIddEEKNS_12ArrayWrapperINS_6MatrixIdLin1ELin1ELi0ELin1ELin1EEEEESB_EESD_EESD_EESD_EESD_EESD_EESD_EENS0_10IndexBasedESP_ddE4DataD1Ev, symObjAddr: 0xE210, symBinAddr: 0x100011680, symSize: 0x2C }
  - { offsetInCU: 0x39E14, offset: 0x39E14, size: 0x8, addend: 0x0, symName: __ZN5Eigen8internal16binary_evaluatorINS_13CwiseBinaryOpINS0_13scalar_sum_opIddEEKNS2_IS4_KNS2_IS4_KNS2_IS4_KNS2_IS4_KNS2_IS4_KNS2_INS0_17scalar_product_opIddEEKNS_12ArrayWrapperINS_6MatrixIdLin1ELin1ELi0ELin1ELin1EEEEESB_EESD_EESD_EESD_EESD_EESD_EESD_EENS0_10IndexBasedESP_ddE4DataD2Ev, symObjAddr: 0xE23C, symBinAddr: 0x1000116AC, symSize: 0x6C }
  - { offsetInCU: 0x39E41, offset: 0x39E41, size: 0x8, addend: 0x0, symName: __ZN5Eigen8internal9evaluatorIKNS_13CwiseBinaryOpINS0_13scalar_sum_opIddEEKNS2_IS4_KNS2_IS4_KNS2_IS4_KNS2_IS4_KNS2_IS4_KNS2_IS4_KNS2_INS0_17scalar_product_opIddEEKNS_12ArrayWrapperINS_6MatrixIdLin1ELin1ELi0ELin1ELin1EEEEESB_EESD_EESD_EESD_EESD_EESD_EESD_EESD_EEED2Ev, symObjAddr: 0xE2A8, symBinAddr: 0x100011718, symSize: 0x2C }
  - { offsetInCU: 0x39E6D, offset: 0x39E6D, size: 0x8, addend: 0x0, symName: __ZN5Eigen8internal9evaluatorINS_13CwiseBinaryOpINS0_13scalar_sum_opIddEEKNS2_IS4_KNS2_IS4_KNS2_IS4_KNS2_IS4_KNS2_IS4_KNS2_IS4_KNS2_INS0_17scalar_product_opIddEEKNS_12ArrayWrapperINS_6MatrixIdLin1ELin1ELi0ELin1ELin1EEEEESB_EESD_EESD_EESD_EESD_EESD_EESD_EESD_EEED2Ev, symObjAddr: 0xE2D4, symBinAddr: 0x100011744, symSize: 0x2C }
  - { offsetInCU: 0x39E9A, offset: 0x39E9A, size: 0x8, addend: 0x0, symName: __ZN5Eigen8internal16binary_evaluatorINS_13CwiseBinaryOpINS0_13scalar_sum_opIddEEKNS2_IS4_KNS2_IS4_KNS2_IS4_KNS2_IS4_KNS2_IS4_KNS2_IS4_KNS2_INS0_17scalar_product_opIddEEKNS_12ArrayWrapperINS_6MatrixIdLin1ELin1ELi0ELin1ELin1EEEEESB_EESD_EESD_EESD_EESD_EESD_EESD_EESD_EENS0_10IndexBasedESR_ddED2Ev, symObjAddr: 0xE300, symBinAddr: 0x100011770, symSize: 0x5C }
  - { offsetInCU: 0x39EC6, offset: 0x39EC6, size: 0x8, addend: 0x0, symName: __ZN5Eigen8internal16binary_evaluatorINS_13CwiseBinaryOpINS0_13scalar_sum_opIddEEKNS2_IS4_KNS2_IS4_KNS2_IS4_KNS2_IS4_KNS2_IS4_KNS2_IS4_KNS2_INS0_17scalar_product_opIddEEKNS_12ArrayWrapperINS_6MatrixIdLin1ELin1ELi0ELin1ELin1EEEEESB_EESD_EESD_EESD_EESD_EESD_EESD_EESD_EENS0_10IndexBasedESR_ddE4DataD1Ev, symObjAddr: 0xE35C, symBinAddr: 0x1000117CC, symSize: 0x2C }
  - { offsetInCU: 0x39EF3, offset: 0x39EF3, size: 0x8, addend: 0x0, symName: __ZN5Eigen8internal16binary_evaluatorINS_13CwiseBinaryOpINS0_13scalar_sum_opIddEEKNS2_IS4_KNS2_IS4_KNS2_IS4_KNS2_IS4_KNS2_IS4_KNS2_IS4_KNS2_INS0_17scalar_product_opIddEEKNS_12ArrayWrapperINS_6MatrixIdLin1ELin1ELi0ELin1ELin1EEEEESB_EESD_EESD_EESD_EESD_EESD_EESD_EESD_EENS0_10IndexBasedESR_ddE4DataD2Ev, symObjAddr: 0xE388, symBinAddr: 0x1000117F8, symSize: 0x6C }
  - { offsetInCU: 0x39F20, offset: 0x39F20, size: 0x8, addend: 0x0, symName: __ZN5Eigen8internal9evaluatorIKNS_13CwiseBinaryOpINS0_13scalar_sum_opIddEEKNS2_IS4_KNS2_IS4_KNS2_IS4_KNS2_IS4_KNS2_IS4_KNS2_IS4_KNS2_IS4_KNS2_INS0_17scalar_product_opIddEEKNS_12ArrayWrapperINS_6MatrixIdLin1ELin1ELi0ELin1ELin1EEEEESB_EESD_EESD_EESD_EESD_EESD_EESD_EESD_EESD_EEED2Ev, symObjAddr: 0xE3F4, symBinAddr: 0x100011864, symSize: 0x2C }
  - { offsetInCU: 0x39F4C, offset: 0x39F4C, size: 0x8, addend: 0x0, symName: __ZN5Eigen8internal9evaluatorINS_13CwiseBinaryOpINS0_13scalar_sum_opIddEEKNS2_IS4_KNS2_IS4_KNS2_IS4_KNS2_IS4_KNS2_IS4_KNS2_IS4_KNS2_IS4_KNS2_INS0_17scalar_product_opIddEEKNS_12ArrayWrapperINS_6MatrixIdLin1ELin1ELi0ELin1ELin1EEEEESB_EESD_EESD_EESD_EESD_EESD_EESD_EESD_EESD_EEED2Ev, symObjAddr: 0xE420, symBinAddr: 0x100011890, symSize: 0x2C }
  - { offsetInCU: 0x39F79, offset: 0x39F79, size: 0x8, addend: 0x0, symName: __ZN5Eigen8internal16binary_evaluatorINS_13CwiseBinaryOpINS0_13scalar_sum_opIddEEKNS2_IS4_KNS2_IS4_KNS2_IS4_KNS2_IS4_KNS2_IS4_KNS2_IS4_KNS2_IS4_KNS2_INS0_17scalar_product_opIddEEKNS_12ArrayWrapperINS_6MatrixIdLin1ELin1ELi0ELin1ELin1EEEEESB_EESD_EESD_EESD_EESD_EESD_EESD_EESD_EESD_EENS0_10IndexBasedEST_ddED2Ev, symObjAddr: 0xE44C, symBinAddr: 0x1000118BC, symSize: 0x5C }
  - { offsetInCU: 0x39FA5, offset: 0x39FA5, size: 0x8, addend: 0x0, symName: __ZN5Eigen8internal16binary_evaluatorINS_13CwiseBinaryOpINS0_13scalar_sum_opIddEEKNS2_IS4_KNS2_IS4_KNS2_IS4_KNS2_IS4_KNS2_IS4_KNS2_IS4_KNS2_IS4_KNS2_INS0_17scalar_product_opIddEEKNS_12ArrayWrapperINS_6MatrixIdLin1ELin1ELi0ELin1ELin1EEEEESB_EESD_EESD_EESD_EESD_EESD_EESD_EESD_EESD_EENS0_10IndexBasedEST_ddE4DataD1Ev, symObjAddr: 0xE4A8, symBinAddr: 0x100011918, symSize: 0x2C }
  - { offsetInCU: 0x39FD2, offset: 0x39FD2, size: 0x8, addend: 0x0, symName: __ZN5Eigen8internal16binary_evaluatorINS_13CwiseBinaryOpINS0_13scalar_sum_opIddEEKNS2_IS4_KNS2_IS4_KNS2_IS4_KNS2_IS4_KNS2_IS4_KNS2_IS4_KNS2_IS4_KNS2_INS0_17scalar_product_opIddEEKNS_12ArrayWrapperINS_6MatrixIdLin1ELin1ELi0ELin1ELin1EEEEESB_EESD_EESD_EESD_EESD_EESD_EESD_EESD_EESD_EENS0_10IndexBasedEST_ddE4DataD2Ev, symObjAddr: 0xE4D4, symBinAddr: 0x100011944, symSize: 0x6C }
  - { offsetInCU: 0x39FFF, offset: 0x39FFF, size: 0x8, addend: 0x0, symName: __ZN5Eigen8internal9evaluatorIKNS_13CwiseBinaryOpINS0_13scalar_sum_opIddEEKNS2_IS4_KNS2_IS4_KNS2_IS4_KNS2_IS4_KNS2_IS4_KNS2_IS4_KNS2_IS4_KNS2_IS4_KNS2_INS0_17scalar_product_opIddEEKNS_12ArrayWrapperINS_6MatrixIdLin1ELin1ELi0ELin1ELin1EEEEESB_EESD_EESD_EESD_EESD_EESD_EESD_EESD_EESD_EESD_EEED2Ev, symObjAddr: 0xE540, symBinAddr: 0x1000119B0, symSize: 0x2C }
  - { offsetInCU: 0x3A02B, offset: 0x3A02B, size: 0x8, addend: 0x0, symName: __ZN5Eigen8internal9evaluatorINS_13CwiseBinaryOpINS0_13scalar_sum_opIddEEKNS2_IS4_KNS2_IS4_KNS2_IS4_KNS2_IS4_KNS2_IS4_KNS2_IS4_KNS2_IS4_KNS2_IS4_KNS2_INS0_17scalar_product_opIddEEKNS_12ArrayWrapperINS_6MatrixIdLin1ELin1ELi0ELin1ELin1EEEEESB_EESD_EESD_EESD_EESD_EESD_EESD_EESD_EESD_EESD_EEED2Ev, symObjAddr: 0xE56C, symBinAddr: 0x1000119DC, symSize: 0x2C }
  - { offsetInCU: 0x3A058, offset: 0x3A058, size: 0x8, addend: 0x0, symName: __ZN5Eigen8internal16binary_evaluatorINS_13CwiseBinaryOpINS0_13scalar_sum_opIddEEKNS2_IS4_KNS2_IS4_KNS2_IS4_KNS2_IS4_KNS2_IS4_KNS2_IS4_KNS2_IS4_KNS2_IS4_KNS2_INS0_17scalar_product_opIddEEKNS_12ArrayWrapperINS_6MatrixIdLin1ELin1ELi0ELin1ELin1EEEEESB_EESD_EESD_EESD_EESD_EESD_EESD_EESD_EESD_EESD_EENS0_10IndexBasedESV_ddED2Ev, symObjAddr: 0xE598, symBinAddr: 0x100011A08, symSize: 0x5C }
  - { offsetInCU: 0x3A084, offset: 0x3A084, size: 0x8, addend: 0x0, symName: __ZN5Eigen8internal16binary_evaluatorINS_13CwiseBinaryOpINS0_13scalar_sum_opIddEEKNS2_IS4_KNS2_IS4_KNS2_IS4_KNS2_IS4_KNS2_IS4_KNS2_IS4_KNS2_IS4_KNS2_IS4_KNS2_INS0_17scalar_product_opIddEEKNS_12ArrayWrapperINS_6MatrixIdLin1ELin1ELi0ELin1ELin1EEEEESB_EESD_EESD_EESD_EESD_EESD_EESD_EESD_EESD_EESD_EENS0_10IndexBasedESV_ddE4DataD1Ev, symObjAddr: 0xE5F4, symBinAddr: 0x100011A64, symSize: 0x2C }
  - { offsetInCU: 0x3A0B1, offset: 0x3A0B1, size: 0x8, addend: 0x0, symName: __ZN5Eigen8internal16binary_evaluatorINS_13CwiseBinaryOpINS0_13scalar_sum_opIddEEKNS2_IS4_KNS2_IS4_KNS2_IS4_KNS2_IS4_KNS2_IS4_KNS2_IS4_KNS2_IS4_KNS2_IS4_KNS2_INS0_17scalar_product_opIddEEKNS_12ArrayWrapperINS_6MatrixIdLin1ELin1ELi0ELin1ELin1EEEEESB_EESD_EESD_EESD_EESD_EESD_EESD_EESD_EESD_EESD_EENS0_10IndexBasedESV_ddE4DataD2Ev, symObjAddr: 0xE620, symBinAddr: 0x100011A90, symSize: 0x6C }
  - { offsetInCU: 0x3A0DE, offset: 0x3A0DE, size: 0x8, addend: 0x0, symName: __ZN5Eigen8internal9evaluatorIKNS_13CwiseBinaryOpINS0_13scalar_sum_opIddEEKNS2_IS4_KNS2_IS4_KNS2_IS4_KNS2_IS4_KNS2_IS4_KNS2_IS4_KNS2_IS4_KNS2_IS4_KNS2_IS4_KNS2_INS0_17scalar_product_opIddEEKNS_12ArrayWrapperINS_6MatrixIdLin1ELin1ELi0ELin1ELin1EEEEESB_EESD_EESD_EESD_EESD_EESD_EESD_EESD_EESD_EESD_EESD_EEED2Ev, symObjAddr: 0xE68C, symBinAddr: 0x100011AFC, symSize: 0x2C }
  - { offsetInCU: 0x3A10A, offset: 0x3A10A, size: 0x8, addend: 0x0, symName: __ZN5Eigen8internal9evaluatorINS_13CwiseBinaryOpINS0_13scalar_sum_opIddEEKNS2_IS4_KNS2_IS4_KNS2_IS4_KNS2_IS4_KNS2_IS4_KNS2_IS4_KNS2_IS4_KNS2_IS4_KNS2_IS4_KNS2_INS0_17scalar_product_opIddEEKNS_12ArrayWrapperINS_6MatrixIdLin1ELin1ELi0ELin1ELin1EEEEESB_EESD_EESD_EESD_EESD_EESD_EESD_EESD_EESD_EESD_EESD_EEED2Ev, symObjAddr: 0xE6B8, symBinAddr: 0x100011B28, symSize: 0x2C }
  - { offsetInCU: 0x3A137, offset: 0x3A137, size: 0x8, addend: 0x0, symName: __ZN5Eigen8internal16binary_evaluatorINS_13CwiseBinaryOpINS0_13scalar_sum_opIddEEKNS2_IS4_KNS2_IS4_KNS2_IS4_KNS2_IS4_KNS2_IS4_KNS2_IS4_KNS2_IS4_KNS2_IS4_KNS2_IS4_KNS2_INS0_17scalar_product_opIddEEKNS_12ArrayWrapperINS_6MatrixIdLin1ELin1ELi0ELin1ELin1EEEEESB_EESD_EESD_EESD_EESD_EESD_EESD_EESD_EESD_EESD_EESD_EENS0_10IndexBasedESX_ddED2Ev, symObjAddr: 0xE6E4, symBinAddr: 0x100011B54, symSize: 0x5C }
  - { offsetInCU: 0x3A163, offset: 0x3A163, size: 0x8, addend: 0x0, symName: __ZN5Eigen8internal16binary_evaluatorINS_13CwiseBinaryOpINS0_13scalar_sum_opIddEEKNS2_IS4_KNS2_IS4_KNS2_IS4_KNS2_IS4_KNS2_IS4_KNS2_IS4_KNS2_IS4_KNS2_IS4_KNS2_IS4_KNS2_INS0_17scalar_product_opIddEEKNS_12ArrayWrapperINS_6MatrixIdLin1ELin1ELi0ELin1ELin1EEEEESB_EESD_EESD_EESD_EESD_EESD_EESD_EESD_EESD_EESD_EESD_EENS0_10IndexBasedESX_ddE4DataD1Ev, symObjAddr: 0xE740, symBinAddr: 0x100011BB0, symSize: 0x2C }
  - { offsetInCU: 0x3A190, offset: 0x3A190, size: 0x8, addend: 0x0, symName: __ZN5Eigen8internal16binary_evaluatorINS_13CwiseBinaryOpINS0_13scalar_sum_opIddEEKNS2_IS4_KNS2_IS4_KNS2_IS4_KNS2_IS4_KNS2_IS4_KNS2_IS4_KNS2_IS4_KNS2_IS4_KNS2_IS4_KNS2_INS0_17scalar_product_opIddEEKNS_12ArrayWrapperINS_6MatrixIdLin1ELin1ELi0ELin1ELin1EEEEESB_EESD_EESD_EESD_EESD_EESD_EESD_EESD_EESD_EESD_EESD_EENS0_10IndexBasedESX_ddE4DataD2Ev, symObjAddr: 0xE76C, symBinAddr: 0x100011BDC, symSize: 0x6C }
  - { offsetInCU: 0x3A1BD, offset: 0x3A1BD, size: 0x8, addend: 0x0, symName: __ZN5Eigen8internal31generic_dense_assignment_kernelINS0_9evaluatorINS_6MatrixIdLin1ELin1ELi0ELin1ELin1EEEEENS2_INS_13CwiseBinaryOpINS0_13scalar_sum_opIddEEKNS6_IS8_KNS6_IS8_KNS6_IS8_KNS6_IS8_KNS6_IS8_KNS6_IS8_KNS6_IS8_KNS6_IS8_KNS6_IS8_KNS6_IS8_KNS6_INS0_17scalar_product_opIddEEKNS_12ArrayWrapperIS4_EESD_EESF_EESF_EESF_EESF_EESF_EESF_EESF_EESF_EESF_EESF_EESF_EEEENS0_9assign_opIddEELi0EEC2ERS5_RKS11_RKS13_RS4_, symObjAddr: 0xE7D8, symBinAddr: 0x100011C48, symSize: 0x44 }
  - { offsetInCU: 0x3A223, offset: 0x3A223, size: 0x8, addend: 0x0, symName: __ZNK5Eigen8internal31generic_dense_assignment_kernelINS0_9evaluatorINS_6MatrixIdLin1ELin1ELi0ELin1ELin1EEEEENS2_INS_13CwiseBinaryOpINS0_13scalar_sum_opIddEEKNS6_IS8_KNS6_IS8_KNS6_IS8_KNS6_IS8_KNS6_IS8_KNS6_IS8_KNS6_IS8_KNS6_IS8_KNS6_IS8_KNS6_IS8_KNS6_INS0_17scalar_product_opIddEEKNS_12ArrayWrapperIS4_EESD_EESF_EESF_EESF_EESF_EESF_EESF_EESF_EESF_EESF_EESF_EESF_EEEENS0_9assign_opIddEELi0EE4sizeEv, symObjAddr: 0xE81C, symBinAddr: 0x100011C8C, symSize: 0x28 }
  - { offsetInCU: 0x3A249, offset: 0x3A249, size: 0x8, addend: 0x0, symName: __ZN5Eigen8internal31unaligned_dense_assignment_loopILb1EE3runINS0_31generic_dense_assignment_kernelINS0_9evaluatorINS_6MatrixIdLin1ELin1ELi0ELin1ELin1EEEEENS5_INS_13CwiseBinaryOpINS0_13scalar_sum_opIddEEKNS9_ISB_KNS9_ISB_KNS9_ISB_KNS9_ISB_KNS9_ISB_KNS9_ISB_KNS9_ISB_KNS9_ISB_KNS9_ISB_KNS9_ISB_KNS9_INS0_17scalar_product_opIddEEKNS_12ArrayWrapperIS7_EESG_EESI_EESI_EESI_EESI_EESI_EESI_EESI_EESI_EESI_EESI_EESI_EEEENS0_9assign_opIddEELi0EEEEEvRT_ll, symObjAddr: 0xE844, symBinAddr: 0x100011CB4, symSize: 0x18 }
  - { offsetInCU: 0x3A288, offset: 0x3A288, size: 0x8, addend: 0x0, symName: __ZN5Eigen8internal31generic_dense_assignment_kernelINS0_9evaluatorINS_6MatrixIdLin1ELin1ELi0ELin1ELin1EEEEENS2_INS_13CwiseBinaryOpINS0_13scalar_sum_opIddEEKNS6_IS8_KNS6_IS8_KNS6_IS8_KNS6_IS8_KNS6_IS8_KNS6_IS8_KNS6_IS8_KNS6_IS8_KNS6_IS8_KNS6_IS8_KNS6_INS0_17scalar_product_opIddEEKNS_12ArrayWrapperIS4_EESD_EESF_EESF_EESF_EESF_EESF_EESF_EESF_EESF_EESF_EESF_EESF_EEEENS0_9assign_opIddEELi0EE12assignPacketILi16ELi16E19__simd128_float64_tEEvl, symObjAddr: 0xE85C, symBinAddr: 0x100011CCC, symSize: 0x64 }
  - { offsetInCU: 0x3A2DA, offset: 0x3A2DA, size: 0x8, addend: 0x0, symName: __ZN5Eigen8internal31unaligned_dense_assignment_loopILb0EE3runINS0_31generic_dense_assignment_kernelINS0_9evaluatorINS_6MatrixIdLin1ELin1ELi0ELin1ELin1EEEEENS5_INS_13CwiseBinaryOpINS0_13scalar_sum_opIddEEKNS9_ISB_KNS9_ISB_KNS9_ISB_KNS9_ISB_KNS9_ISB_KNS9_ISB_KNS9_ISB_KNS9_ISB_KNS9_ISB_KNS9_ISB_KNS9_INS0_17scalar_product_opIddEEKNS_12ArrayWrapperIS7_EESG_EESI_EESI_EESI_EESI_EESI_EESI_EESI_EESI_EESI_EESI_EESI_EEEENS0_9assign_opIddEELi0EEEEEvRT_ll, symObjAddr: 0xE8C0, symBinAddr: 0x100011D30, symSize: 0x68 }
  - { offsetInCU: 0x3A342, offset: 0x3A342, size: 0x8, addend: 0x0, symName: __ZNK5Eigen8internal16binary_evaluatorINS_13CwiseBinaryOpINS0_13scalar_sum_opIddEEKNS2_IS4_KNS2_IS4_KNS2_IS4_KNS2_IS4_KNS2_IS4_KNS2_IS4_KNS2_IS4_KNS2_IS4_KNS2_IS4_KNS2_IS4_KNS2_INS0_17scalar_product_opIddEEKNS_12ArrayWrapperINS_6MatrixIdLin1ELin1ELi0ELin1ELin1EEEEESB_EESD_EESD_EESD_EESD_EESD_EESD_EESD_EESD_EESD_EESD_EESD_EENS0_10IndexBasedESZ_ddE6packetILi16E19__simd128_float64_tEET0_l, symObjAddr: 0xE928, symBinAddr: 0x100011D98, symSize: 0x70 }
  - { offsetInCU: 0x3A38A, offset: 0x3A38A, size: 0x8, addend: 0x0, symName: __ZNK5Eigen8internal16binary_evaluatorINS_13CwiseBinaryOpINS0_13scalar_sum_opIddEEKNS2_IS4_KNS2_IS4_KNS2_IS4_KNS2_IS4_KNS2_IS4_KNS2_IS4_KNS2_IS4_KNS2_IS4_KNS2_IS4_KNS2_IS4_KNS2_INS0_17scalar_product_opIddEEKNS_12ArrayWrapperINS_6MatrixIdLin1ELin1ELi0ELin1ELin1EEEEESB_EESD_EESD_EESD_EESD_EESD_EESD_EESD_EESD_EESD_EESD_EESD_EENS0_10IndexBasedESZ_ddE4Data4funcEv, symObjAddr: 0xE998, symBinAddr: 0x100011E08, symSize: 0x14 }
  - { offsetInCU: 0x3A3B0, offset: 0x3A3B0, size: 0x8, addend: 0x0, symName: __ZNK5Eigen8internal16binary_evaluatorINS_13CwiseBinaryOpINS0_13scalar_sum_opIddEEKNS2_IS4_KNS2_IS4_KNS2_IS4_KNS2_IS4_KNS2_IS4_KNS2_IS4_KNS2_IS4_KNS2_IS4_KNS2_IS4_KNS2_INS0_17scalar_product_opIddEEKNS_12ArrayWrapperINS_6MatrixIdLin1ELin1ELi0ELin1ELin1EEEEESB_EESD_EESD_EESD_EESD_EESD_EESD_EESD_EESD_EESD_EESD_EENS0_10IndexBasedESX_ddE6packetILi16E19__simd128_float64_tEET0_l, symObjAddr: 0xE9AC, symBinAddr: 0x100011E1C, symSize: 0x70 }
  - { offsetInCU: 0x3A3F8, offset: 0x3A3F8, size: 0x8, addend: 0x0, symName: __ZNK5Eigen8internal16binary_evaluatorINS_13CwiseBinaryOpINS0_13scalar_sum_opIddEEKNS2_IS4_KNS2_IS4_KNS2_IS4_KNS2_IS4_KNS2_IS4_KNS2_IS4_KNS2_IS4_KNS2_IS4_KNS2_IS4_KNS2_INS0_17scalar_product_opIddEEKNS_12ArrayWrapperINS_6MatrixIdLin1ELin1ELi0ELin1ELin1EEEEESB_EESD_EESD_EESD_EESD_EESD_EESD_EESD_EESD_EESD_EESD_EENS0_10IndexBasedESX_ddE4Data4funcEv, symObjAddr: 0xEA1C, symBinAddr: 0x100011E8C, symSize: 0x14 }
  - { offsetInCU: 0x3A41E, offset: 0x3A41E, size: 0x8, addend: 0x0, symName: __ZNK5Eigen8internal16binary_evaluatorINS_13CwiseBinaryOpINS0_13scalar_sum_opIddEEKNS2_IS4_KNS2_IS4_KNS2_IS4_KNS2_IS4_KNS2_IS4_KNS2_IS4_KNS2_IS4_KNS2_IS4_KNS2_INS0_17scalar_product_opIddEEKNS_12ArrayWrapperINS_6MatrixIdLin1ELin1ELi0ELin1ELin1EEEEESB_EESD_EESD_EESD_EESD_EESD_EESD_EESD_EESD_EESD_EENS0_10IndexBasedESV_ddE6packetILi16E19__simd128_float64_tEET0_l, symObjAddr: 0xEA30, symBinAddr: 0x100011EA0, symSize: 0x70 }
  - { offsetInCU: 0x3A466, offset: 0x3A466, size: 0x8, addend: 0x0, symName: __ZNK5Eigen8internal16binary_evaluatorINS_13CwiseBinaryOpINS0_13scalar_sum_opIddEEKNS2_IS4_KNS2_IS4_KNS2_IS4_KNS2_IS4_KNS2_IS4_KNS2_IS4_KNS2_IS4_KNS2_IS4_KNS2_INS0_17scalar_product_opIddEEKNS_12ArrayWrapperINS_6MatrixIdLin1ELin1ELi0ELin1ELin1EEEEESB_EESD_EESD_EESD_EESD_EESD_EESD_EESD_EESD_EESD_EENS0_10IndexBasedESV_ddE4Data4funcEv, symObjAddr: 0xEAA0, symBinAddr: 0x100011F10, symSize: 0x14 }
  - { offsetInCU: 0x3A48C, offset: 0x3A48C, size: 0x8, addend: 0x0, symName: __ZNK5Eigen8internal16binary_evaluatorINS_13CwiseBinaryOpINS0_13scalar_sum_opIddEEKNS2_IS4_KNS2_IS4_KNS2_IS4_KNS2_IS4_KNS2_IS4_KNS2_IS4_KNS2_IS4_KNS2_INS0_17scalar_product_opIddEEKNS_12ArrayWrapperINS_6MatrixIdLin1ELin1ELi0ELin1ELin1EEEEESB_EESD_EESD_EESD_EESD_EESD_EESD_EESD_EESD_EENS0_10IndexBasedEST_ddE6packetILi16E19__simd128_float64_tEET0_l, symObjAddr: 0xEAB4, symBinAddr: 0x100011F24, symSize: 0x70 }
  - { offsetInCU: 0x3A4D4, offset: 0x3A4D4, size: 0x8, addend: 0x0, symName: __ZNK5Eigen8internal16binary_evaluatorINS_13CwiseBinaryOpINS0_13scalar_sum_opIddEEKNS2_IS4_KNS2_IS4_KNS2_IS4_KNS2_IS4_KNS2_IS4_KNS2_IS4_KNS2_IS4_KNS2_INS0_17scalar_product_opIddEEKNS_12ArrayWrapperINS_6MatrixIdLin1ELin1ELi0ELin1ELin1EEEEESB_EESD_EESD_EESD_EESD_EESD_EESD_EESD_EESD_EENS0_10IndexBasedEST_ddE4Data4funcEv, symObjAddr: 0xEB24, symBinAddr: 0x100011F94, symSize: 0x14 }
  - { offsetInCU: 0x3A4FA, offset: 0x3A4FA, size: 0x8, addend: 0x0, symName: __ZNK5Eigen8internal16binary_evaluatorINS_13CwiseBinaryOpINS0_13scalar_sum_opIddEEKNS2_IS4_KNS2_IS4_KNS2_IS4_KNS2_IS4_KNS2_IS4_KNS2_IS4_KNS2_INS0_17scalar_product_opIddEEKNS_12ArrayWrapperINS_6MatrixIdLin1ELin1ELi0ELin1ELin1EEEEESB_EESD_EESD_EESD_EESD_EESD_EESD_EESD_EENS0_10IndexBasedESR_ddE6packetILi16E19__simd128_float64_tEET0_l, symObjAddr: 0xEB38, symBinAddr: 0x100011FA8, symSize: 0x70 }
  - { offsetInCU: 0x3A542, offset: 0x3A542, size: 0x8, addend: 0x0, symName: __ZNK5Eigen8internal16binary_evaluatorINS_13CwiseBinaryOpINS0_13scalar_sum_opIddEEKNS2_IS4_KNS2_IS4_KNS2_IS4_KNS2_IS4_KNS2_IS4_KNS2_IS4_KNS2_INS0_17scalar_product_opIddEEKNS_12ArrayWrapperINS_6MatrixIdLin1ELin1ELi0ELin1ELin1EEEEESB_EESD_EESD_EESD_EESD_EESD_EESD_EESD_EENS0_10IndexBasedESR_ddE4Data4funcEv, symObjAddr: 0xEBA8, symBinAddr: 0x100012018, symSize: 0x14 }
  - { offsetInCU: 0x3A568, offset: 0x3A568, size: 0x8, addend: 0x0, symName: __ZNK5Eigen8internal16binary_evaluatorINS_13CwiseBinaryOpINS0_13scalar_sum_opIddEEKNS2_IS4_KNS2_IS4_KNS2_IS4_KNS2_IS4_KNS2_IS4_KNS2_INS0_17scalar_product_opIddEEKNS_12ArrayWrapperINS_6MatrixIdLin1ELin1ELi0ELin1ELin1EEEEESB_EESD_EESD_EESD_EESD_EESD_EESD_EENS0_10IndexBasedESP_ddE6packetILi16E19__simd128_float64_tEET0_l, symObjAddr: 0xEBBC, symBinAddr: 0x10001202C, symSize: 0x70 }
  - { offsetInCU: 0x3A5B0, offset: 0x3A5B0, size: 0x8, addend: 0x0, symName: __ZNK5Eigen8internal16binary_evaluatorINS_13CwiseBinaryOpINS0_13scalar_sum_opIddEEKNS2_IS4_KNS2_IS4_KNS2_IS4_KNS2_IS4_KNS2_IS4_KNS2_INS0_17scalar_product_opIddEEKNS_12ArrayWrapperINS_6MatrixIdLin1ELin1ELi0ELin1ELin1EEEEESB_EESD_EESD_EESD_EESD_EESD_EESD_EENS0_10IndexBasedESP_ddE4Data4funcEv, symObjAddr: 0xEC2C, symBinAddr: 0x10001209C, symSize: 0x14 }
  - { offsetInCU: 0x3A5D6, offset: 0x3A5D6, size: 0x8, addend: 0x0, symName: __ZN5Eigen8internal31generic_dense_assignment_kernelINS0_9evaluatorINS_6MatrixIdLin1ELin1ELi0ELin1ELin1EEEEENS2_INS_13CwiseBinaryOpINS0_13scalar_sum_opIddEEKNS6_IS8_KNS6_IS8_KNS6_IS8_KNS6_IS8_KNS6_IS8_KNS6_IS8_KNS6_IS8_KNS6_IS8_KNS6_IS8_KNS6_IS8_KNS6_INS0_17scalar_product_opIddEEKNS_12ArrayWrapperIS4_EESD_EESF_EESF_EESF_EESF_EESF_EESF_EESF_EESF_EESF_EESF_EESF_EEEENS0_9assign_opIddEELi0EE11assignCoeffEl, symObjAddr: 0xEC40, symBinAddr: 0x1000120B0, symSize: 0x64 }
  - { offsetInCU: 0x3A60B, offset: 0x3A60B, size: 0x8, addend: 0x0, symName: __ZNK5Eigen8internal16binary_evaluatorINS_13CwiseBinaryOpINS0_13scalar_sum_opIddEEKNS2_IS4_KNS2_IS4_KNS2_IS4_KNS2_IS4_KNS2_IS4_KNS2_IS4_KNS2_IS4_KNS2_IS4_KNS2_IS4_KNS2_IS4_KNS2_INS0_17scalar_product_opIddEEKNS_12ArrayWrapperINS_6MatrixIdLin1ELin1ELi0ELin1ELin1EEEEESB_EESD_EESD_EESD_EESD_EESD_EESD_EESD_EESD_EESD_EESD_EESD_EENS0_10IndexBasedESZ_ddE5coeffEl, symObjAddr: 0xECA4, symBinAddr: 0x100012114, symSize: 0x70 }
  - { offsetInCU: 0x3A640, offset: 0x3A640, size: 0x8, addend: 0x0, symName: __ZNK5Eigen8internal16binary_evaluatorINS_13CwiseBinaryOpINS0_13scalar_sum_opIddEEKNS2_IS4_KNS2_IS4_KNS2_IS4_KNS2_IS4_KNS2_IS4_KNS2_IS4_KNS2_IS4_KNS2_IS4_KNS2_IS4_KNS2_INS0_17scalar_product_opIddEEKNS_12ArrayWrapperINS_6MatrixIdLin1ELin1ELi0ELin1ELin1EEEEESB_EESD_EESD_EESD_EESD_EESD_EESD_EESD_EESD_EESD_EESD_EENS0_10IndexBasedESX_ddE5coeffEl, symObjAddr: 0xED14, symBinAddr: 0x100012184, symSize: 0x70 }
  - { offsetInCU: 0x3A675, offset: 0x3A675, size: 0x8, addend: 0x0, symName: __ZNK5Eigen8internal16binary_evaluatorINS_13CwiseBinaryOpINS0_13scalar_sum_opIddEEKNS2_IS4_KNS2_IS4_KNS2_IS4_KNS2_IS4_KNS2_IS4_KNS2_IS4_KNS2_IS4_KNS2_IS4_KNS2_INS0_17scalar_product_opIddEEKNS_12ArrayWrapperINS_6MatrixIdLin1ELin1ELi0ELin1ELin1EEEEESB_EESD_EESD_EESD_EESD_EESD_EESD_EESD_EESD_EESD_EENS0_10IndexBasedESV_ddE5coeffEl, symObjAddr: 0xED84, symBinAddr: 0x1000121F4, symSize: 0x70 }
  - { offsetInCU: 0x3A6AA, offset: 0x3A6AA, size: 0x8, addend: 0x0, symName: __ZNK5Eigen8internal16binary_evaluatorINS_13CwiseBinaryOpINS0_13scalar_sum_opIddEEKNS2_IS4_KNS2_IS4_KNS2_IS4_KNS2_IS4_KNS2_IS4_KNS2_IS4_KNS2_IS4_KNS2_INS0_17scalar_product_opIddEEKNS_12ArrayWrapperINS_6MatrixIdLin1ELin1ELi0ELin1ELin1EEEEESB_EESD_EESD_EESD_EESD_EESD_EESD_EESD_EESD_EENS0_10IndexBasedEST_ddE5coeffEl, symObjAddr: 0xEDF4, symBinAddr: 0x100012264, symSize: 0x70 }
  - { offsetInCU: 0x3A6DF, offset: 0x3A6DF, size: 0x8, addend: 0x0, symName: __ZNK5Eigen8internal16binary_evaluatorINS_13CwiseBinaryOpINS0_13scalar_sum_opIddEEKNS2_IS4_KNS2_IS4_KNS2_IS4_KNS2_IS4_KNS2_IS4_KNS2_IS4_KNS2_INS0_17scalar_product_opIddEEKNS_12ArrayWrapperINS_6MatrixIdLin1ELin1ELi0ELin1ELin1EEEEESB_EESD_EESD_EESD_EESD_EESD_EESD_EESD_EENS0_10IndexBasedESR_ddE5coeffEl, symObjAddr: 0xEE64, symBinAddr: 0x1000122D4, symSize: 0x70 }
  - { offsetInCU: 0x3A714, offset: 0x3A714, size: 0x8, addend: 0x0, symName: __ZNK5Eigen8internal16binary_evaluatorINS_13CwiseBinaryOpINS0_13scalar_sum_opIddEEKNS2_IS4_KNS2_IS4_KNS2_IS4_KNS2_IS4_KNS2_IS4_KNS2_INS0_17scalar_product_opIddEEKNS_12ArrayWrapperINS_6MatrixIdLin1ELin1ELi0ELin1ELin1EEEEESB_EESD_EESD_EESD_EESD_EESD_EESD_EENS0_10IndexBasedESP_ddE5coeffEl, symObjAddr: 0xEED4, symBinAddr: 0x100012344, symSize: 0x70 }
  - { offsetInCU: 0x3A749, offset: 0x3A749, size: 0x8, addend: 0x0, symName: __ZN5Eigen8internal9evaluatorINS_13CwiseBinaryOpINS0_13scalar_sum_opIddEEKNS2_IS4_KNS2_IS4_KNS2_IS4_KNS2_IS4_KNS2_IS4_KNS2_IS4_KNS2_IS4_KNS2_IS4_KNS2_IS4_KNS2_IS4_KNS2_INS0_17scalar_product_opIddEEKNS_12ArrayWrapperINS_6MatrixIdLin1ELin1ELi0ELin1ELin1EEEEESB_EESD_EESD_EESD_EESD_EESD_EESD_EESD_EESD_EESD_EESD_EESD_EEED2Ev, symObjAddr: 0xEF44, symBinAddr: 0x1000123B4, symSize: 0x2C }
  - { offsetInCU: 0x3A776, offset: 0x3A776, size: 0x8, addend: 0x0, symName: __ZN5Eigen8internal16binary_evaluatorINS_13CwiseBinaryOpINS0_13scalar_sum_opIddEEKNS2_IS4_KNS2_IS4_KNS2_IS4_KNS2_IS4_KNS2_IS4_KNS2_IS4_KNS2_IS4_KNS2_IS4_KNS2_IS4_KNS2_IS4_KNS2_INS0_17scalar_product_opIddEEKNS_12ArrayWrapperINS_6MatrixIdLin1ELin1ELi0ELin1ELin1EEEEESB_EESD_EESD_EESD_EESD_EESD_EESD_EESD_EESD_EESD_EESD_EESD_EENS0_10IndexBasedESZ_ddED2Ev, symObjAddr: 0xEF70, symBinAddr: 0x1000123E0, symSize: 0x5C }
  - { offsetInCU: 0x3A7A2, offset: 0x3A7A2, size: 0x8, addend: 0x0, symName: __ZN5Eigen8internal16binary_evaluatorINS_13CwiseBinaryOpINS0_13scalar_sum_opIddEEKNS2_IS4_KNS2_IS4_KNS2_IS4_KNS2_IS4_KNS2_IS4_KNS2_IS4_KNS2_IS4_KNS2_IS4_KNS2_IS4_KNS2_IS4_KNS2_INS0_17scalar_product_opIddEEKNS_12ArrayWrapperINS_6MatrixIdLin1ELin1ELi0ELin1ELin1EEEEESB_EESD_EESD_EESD_EESD_EESD_EESD_EESD_EESD_EESD_EESD_EESD_EENS0_10IndexBasedESZ_ddE4DataD1Ev, symObjAddr: 0xEFCC, symBinAddr: 0x10001243C, symSize: 0x2C }
  - { offsetInCU: 0x3A7CF, offset: 0x3A7CF, size: 0x8, addend: 0x0, symName: __ZN5Eigen8internal16binary_evaluatorINS_13CwiseBinaryOpINS0_13scalar_sum_opIddEEKNS2_IS4_KNS2_IS4_KNS2_IS4_KNS2_IS4_KNS2_IS4_KNS2_IS4_KNS2_IS4_KNS2_IS4_KNS2_IS4_KNS2_IS4_KNS2_INS0_17scalar_product_opIddEEKNS_12ArrayWrapperINS_6MatrixIdLin1ELin1ELi0ELin1ELin1EEEEESB_EESD_EESD_EESD_EESD_EESD_EESD_EESD_EESD_EESD_EESD_EESD_EENS0_10IndexBasedESZ_ddE4DataD2Ev, symObjAddr: 0xEFF8, symBinAddr: 0x100012468, symSize: 0x6C }
  - { offsetInCU: 0x3A7FC, offset: 0x3A7FC, size: 0x8, addend: 0x0, symName: __ZN5Eigen9DenseBaseINS_6MatrixIdLin1ELin1ELi0ELin1ELin1EEEE8ConstantEllRKd, symObjAddr: 0xF064, symBinAddr: 0x1000124D4, symSize: 0x60 }
  - { offsetInCU: 0x3A840, offset: 0x3A840, size: 0x8, addend: 0x0, symName: __ZN5Eigen9DenseBaseINS_6MatrixIdLin1ELin1ELi0ELin1ELin1EEEE11NullaryExprINS_8internal18scalar_constant_opIdEEEEKNS_14CwiseNullaryOpIT_S2_EEllRKS9_, symObjAddr: 0xF0C4, symBinAddr: 0x100012534, symSize: 0x48 }
  - { offsetInCU: 0x3A88D, offset: 0x3A88D, size: 0x8, addend: 0x0, symName: __ZN5Eigen8internal18scalar_constant_opIdEC1ERKd, symObjAddr: 0xF10C, symBinAddr: 0x10001257C, symSize: 0x34 }
  - { offsetInCU: 0x3A8C5, offset: 0x3A8C5, size: 0x8, addend: 0x0, symName: __ZN5Eigen14CwiseNullaryOpINS_8internal18scalar_constant_opIdEENS_6MatrixIdLin1ELin1ELi0ELin1ELin1EEEEC1EllRKS3_, symObjAddr: 0xF140, symBinAddr: 0x1000125B0, symSize: 0x44 }
  - { offsetInCU: 0x3A919, offset: 0x3A919, size: 0x8, addend: 0x0, symName: __ZN5Eigen14CwiseNullaryOpINS_8internal18scalar_constant_opIdEENS_6MatrixIdLin1ELin1ELi0ELin1ELin1EEEEC2EllRKS3_, symObjAddr: 0xF184, symBinAddr: 0x1000125F4, symSize: 0xE4 }
  - { offsetInCU: 0x3A96D, offset: 0x3A96D, size: 0x8, addend: 0x0, symName: __ZN5Eigen10MatrixBaseINS_14CwiseNullaryOpINS_8internal18scalar_constant_opIdEENS_6MatrixIdLin1ELin1ELi0ELin1ELin1EEEEEEC2Ev, symObjAddr: 0xF268, symBinAddr: 0x1000126D8, symSize: 0x2C }
  - { offsetInCU: 0x3A997, offset: 0x3A997, size: 0x8, addend: 0x0, symName: __ZN5Eigen8internal18scalar_constant_opIdEC1ERKS2_, symObjAddr: 0xF294, symBinAddr: 0x100012704, symSize: 0x34 }
  - { offsetInCU: 0x3A9CF, offset: 0x3A9CF, size: 0x8, addend: 0x0, symName: __ZN5Eigen9DenseBaseINS_14CwiseNullaryOpINS_8internal18scalar_constant_opIdEENS_6MatrixIdLin1ELin1ELi0ELin1ELin1EEEEEEC2Ev, symObjAddr: 0xF2C8, symBinAddr: 0x100012738, symSize: 0x14 }
  - { offsetInCU: 0x3A9F9, offset: 0x3A9F9, size: 0x8, addend: 0x0, symName: __ZN5Eigen8internal18scalar_constant_opIdEC2ERKS2_, symObjAddr: 0xF2DC, symBinAddr: 0x10001274C, symSize: 0x24 }
  - { offsetInCU: 0x3AA31, offset: 0x3AA31, size: 0x8, addend: 0x0, symName: __ZN5Eigen8internal18scalar_constant_opIdEC2ERKd, symObjAddr: 0xF300, symBinAddr: 0x100012770, symSize: 0x24 }
  - { offsetInCU: 0x3AA69, offset: 0x3AA69, size: 0x8, addend: 0x0, symName: __ZN5Eigen6MatrixIdLin1ELin1ELi0ELin1ELin1EEC2INS_14CwiseNullaryOpINS_8internal18scalar_constant_opIdEES1_EEEERKNS_9EigenBaseIT_EE, symObjAddr: 0xF324, symBinAddr: 0x100012794, symSize: 0x40 }
  - { offsetInCU: 0x3AAAB, offset: 0x3AAAB, size: 0x8, addend: 0x0, symName: __ZNK5Eigen9EigenBaseINS_14CwiseNullaryOpINS_8internal18scalar_constant_opIdEENS_6MatrixIdLin1ELin1ELi0ELin1ELin1EEEEEE7derivedEv, symObjAddr: 0xF364, symBinAddr: 0x1000127D4, symSize: 0x14 }
  - { offsetInCU: 0x3AAD1, offset: 0x3AAD1, size: 0x8, addend: 0x0, symName: __ZN5Eigen15PlainObjectBaseINS_6MatrixIdLin1ELin1ELi0ELin1ELin1EEEEC2INS_14CwiseNullaryOpINS_8internal18scalar_constant_opIdEES2_EEEERKNS_9DenseBaseIT_EE, symObjAddr: 0xF378, symBinAddr: 0x1000127E8, symSize: 0x88 }
  - { offsetInCU: 0x3AB13, offset: 0x3AB13, size: 0x8, addend: 0x0, symName: __ZN5Eigen15PlainObjectBaseINS_6MatrixIdLin1ELin1ELi0ELin1ELin1EEEE10resizeLikeINS_14CwiseNullaryOpINS_8internal18scalar_constant_opIdEES2_EEEEvRKNS_9EigenBaseIT_EE, symObjAddr: 0xF400, symBinAddr: 0x100012870, symSize: 0x11C }
  - { offsetInCU: 0x3ABA7, offset: 0x3ABA7, size: 0x8, addend: 0x0, symName: __ZN5Eigen15PlainObjectBaseINS_6MatrixIdLin1ELin1ELi0ELin1ELin1EEEE12_set_noaliasINS_14CwiseNullaryOpINS_8internal18scalar_constant_opIdEES2_EEEERS2_RKNS_9DenseBaseIT_EE, symObjAddr: 0xF51C, symBinAddr: 0x10001298C, symSize: 0x60 }
  - { offsetInCU: 0x3ABE5, offset: 0x3ABE5, size: 0x8, addend: 0x0, symName: __ZNK5Eigen14CwiseNullaryOpINS_8internal18scalar_constant_opIdEENS_6MatrixIdLin1ELin1ELi0ELin1ELin1EEEE4rowsEv, symObjAddr: 0xF57C, symBinAddr: 0x1000129EC, symSize: 0x24 }
  - { offsetInCU: 0x3AC0B, offset: 0x3AC0B, size: 0x8, addend: 0x0, symName: __ZNK5Eigen14CwiseNullaryOpINS_8internal18scalar_constant_opIdEENS_6MatrixIdLin1ELin1ELi0ELin1ELin1EEEE4colsEv, symObjAddr: 0xF5A0, symBinAddr: 0x100012A10, symSize: 0x28 }
  - { offsetInCU: 0x3AC31, offset: 0x3AC31, size: 0x8, addend: 0x0, symName: __ZN5Eigen8internal10AssignmentINS_6MatrixIdLin1ELin1ELi0ELin1ELin1EEENS_14CwiseNullaryOpINS0_18scalar_constant_opIdEES3_EENS0_9assign_opIddEENS0_11Dense2DenseEvE3runERS3_RKS7_RKS9_, symObjAddr: 0xF604, symBinAddr: 0x100012A74, symSize: 0x40 }
  - { offsetInCU: 0x3AC73, offset: 0x3AC73, size: 0x8, addend: 0x0, symName: __ZN5Eigen8internal27checkTransposeAliasing_implINS_6MatrixIdLin1ELin1ELi0ELin1ELin1EEENS_14CwiseNullaryOpINS0_18scalar_constant_opIdEES3_EELb0EE3runERKS3_RKS7_, symObjAddr: 0xF710, symBinAddr: 0x100012B80, symSize: 0x14 }
  - { offsetInCU: 0x3AC9E, offset: 0x3AC9E, size: 0x8, addend: 0x0, symName: __ZNK5Eigen14CwiseNullaryOpINS_8internal18scalar_constant_opIdEENS_6MatrixIdLin1ELin1ELi0ELin1ELin1EEEE7functorEv, symObjAddr: 0xF860, symBinAddr: 0x100012CD0, symSize: 0x18 }
  - { offsetInCU: 0x3ACC4, offset: 0x3ACC4, size: 0x8, addend: 0x0, symName: __ZNK5Eigen8internal18scalar_constant_opIdEclEv, symObjAddr: 0xF878, symBinAddr: 0x100012CE8, symSize: 0x18 }
  - { offsetInCU: 0x3ACEA, offset: 0x3ACEA, size: 0x8, addend: 0x0, symName: __ZN5Eigen15DenseCoeffsBaseINS_6MatrixIdLin1ELin1ELi0ELin1ELin1EEELi1EE8coeffRefEll, symObjAddr: 0xF908, symBinAddr: 0x100012D78, symSize: 0x88 }
  - { offsetInCU: 0x3AD2E, offset: 0x3AD2E, size: 0x8, addend: 0x0, symName: __ZN5Eigen13CwiseBinaryOpINS_8internal13scalar_sum_opIddEEKNS_12ArrayWrapperINS_6MatrixIdLin1ELin1ELi0ELin1ELin1EEEEES8_EC1ERS8_SA_RKS3_, symObjAddr: 0xF990, symBinAddr: 0x100012E00, symSize: 0x44 }
  - { offsetInCU: 0x3AD82, offset: 0x3AD82, size: 0x8, addend: 0x0, symName: __ZN5Eigen13CwiseBinaryOpINS_8internal13scalar_sum_opIddEEKNS_12ArrayWrapperINS_6MatrixIdLin1ELin1ELi0ELin1ELin1EEEEES8_EC2ERS8_SA_RKS3_, symObjAddr: 0xF9D4, symBinAddr: 0x100012E44, symSize: 0x100 }
  - { offsetInCU: 0x3ADDB, offset: 0x3ADDB, size: 0x8, addend: 0x0, symName: __ZN5Eigen17CwiseBinaryOpImplINS_8internal13scalar_sum_opIddEEKNS_12ArrayWrapperINS_6MatrixIdLin1ELin1ELi0ELin1ELin1EEEEES8_NS_5DenseEEC2Ev, symObjAddr: 0xFAD4, symBinAddr: 0x100012F44, symSize: 0x2C }
  - { offsetInCU: 0x3AE07, offset: 0x3AE07, size: 0x8, addend: 0x0, symName: __ZN5Eigen9ArrayBaseINS_13CwiseBinaryOpINS_8internal13scalar_sum_opIddEEKNS_12ArrayWrapperINS_6MatrixIdLin1ELin1ELi0ELin1ELin1EEEEES9_EEEC2Ev, symObjAddr: 0xFB00, symBinAddr: 0x100012F70, symSize: 0x2C }
  - { offsetInCU: 0x3AE31, offset: 0x3AE31, size: 0x8, addend: 0x0, symName: __ZN5Eigen9DenseBaseINS_13CwiseBinaryOpINS_8internal13scalar_sum_opIddEEKNS_12ArrayWrapperINS_6MatrixIdLin1ELin1ELi0ELin1ELin1EEEEES9_EEEC2Ev, symObjAddr: 0xFB2C, symBinAddr: 0x100012F9C, symSize: 0x14 }
  - { offsetInCU: 0x3AE5B, offset: 0x3AE5B, size: 0x8, addend: 0x0, symName: __ZN5Eigen6MatrixIdLin1ELin1ELi0ELin1ELin1EEC2INS_13CwiseBinaryOpINS_8internal13scalar_sum_opIddEEKNS_12ArrayWrapperIS1_EES9_EEEERKNS_9EigenBaseIT_EE, symObjAddr: 0xFB40, symBinAddr: 0x100012FB0, symSize: 0x40 }
  - { offsetInCU: 0x3AE9D, offset: 0x3AE9D, size: 0x8, addend: 0x0, symName: __ZNK5Eigen9EigenBaseINS_13CwiseBinaryOpINS_8internal13scalar_sum_opIddEEKNS_12ArrayWrapperINS_6MatrixIdLin1ELin1ELi0ELin1ELin1EEEEES9_EEE7derivedEv, symObjAddr: 0xFB80, symBinAddr: 0x100012FF0, symSize: 0x14 }
  - { offsetInCU: 0x3AEC3, offset: 0x3AEC3, size: 0x8, addend: 0x0, symName: __ZN5Eigen15PlainObjectBaseINS_6MatrixIdLin1ELin1ELi0ELin1ELin1EEEEC2INS_13CwiseBinaryOpINS_8internal13scalar_sum_opIddEEKNS_12ArrayWrapperIS2_EESB_EEEERKNS_9DenseBaseIT_EE, symObjAddr: 0xFB94, symBinAddr: 0x100013004, symSize: 0x88 }
  - { offsetInCU: 0x3AF05, offset: 0x3AF05, size: 0x8, addend: 0x0, symName: __ZN5Eigen15PlainObjectBaseINS_6MatrixIdLin1ELin1ELi0ELin1ELin1EEEE10resizeLikeINS_13CwiseBinaryOpINS_8internal13scalar_sum_opIddEEKNS_12ArrayWrapperIS2_EESB_EEEEvRKNS_9EigenBaseIT_EE, symObjAddr: 0xFC1C, symBinAddr: 0x10001308C, symSize: 0x11C }
  - { offsetInCU: 0x3AF99, offset: 0x3AF99, size: 0x8, addend: 0x0, symName: __ZN5Eigen15PlainObjectBaseINS_6MatrixIdLin1ELin1ELi0ELin1ELin1EEEE12_set_noaliasINS_13CwiseBinaryOpINS_8internal13scalar_sum_opIddEEKNS_12ArrayWrapperIS2_EESB_EEEERS2_RKNS_9DenseBaseIT_EE, symObjAddr: 0xFD38, symBinAddr: 0x1000131A8, symSize: 0x60 }
  - { offsetInCU: 0x3AFD7, offset: 0x3AFD7, size: 0x8, addend: 0x0, symName: __ZNK5Eigen13CwiseBinaryOpINS_8internal13scalar_sum_opIddEEKNS_12ArrayWrapperINS_6MatrixIdLin1ELin1ELi0ELin1ELin1EEEEES8_E4rowsEv, symObjAddr: 0xFD98, symBinAddr: 0x100013208, symSize: 0x28 }
  - { offsetInCU: 0x3AFFD, offset: 0x3AFFD, size: 0x8, addend: 0x0, symName: __ZNK5Eigen13CwiseBinaryOpINS_8internal13scalar_sum_opIddEEKNS_12ArrayWrapperINS_6MatrixIdLin1ELin1ELi0ELin1ELin1EEEEES8_E4colsEv, symObjAddr: 0xFDC0, symBinAddr: 0x100013230, symSize: 0x28 }
  - { offsetInCU: 0x3B023, offset: 0x3B023, size: 0x8, addend: 0x0, symName: __ZN5Eigen8internal10AssignmentINS_6MatrixIdLin1ELin1ELi0ELin1ELin1EEENS_13CwiseBinaryOpINS0_13scalar_sum_opIddEEKNS_12ArrayWrapperIS3_EES9_EENS0_9assign_opIddEENS0_11Dense2DenseEvE3runERS3_RKSA_RKSC_, symObjAddr: 0xFE24, symBinAddr: 0x100013294, symSize: 0x40 }
  - { offsetInCU: 0x3B065, offset: 0x3B065, size: 0x8, addend: 0x0, symName: __ZN5Eigen8internal27checkTransposeAliasing_implINS_6MatrixIdLin1ELin1ELi0ELin1ELin1EEENS_13CwiseBinaryOpINS0_13scalar_sum_opIddEEKNS_12ArrayWrapperIS3_EES9_EELb0EE3runERKS3_RKSA_, symObjAddr: 0xFFAC, symBinAddr: 0x10001341C, symSize: 0x14 }
  - { offsetInCU: 0x3B090, offset: 0x3B090, size: 0x8, addend: 0x0, symName: __ZN5Eigen8internal9evaluatorINS_13CwiseBinaryOpINS0_13scalar_sum_opIddEEKNS_12ArrayWrapperINS_6MatrixIdLin1ELin1ELi0ELin1ELin1EEEEES9_EEEC1ERKSA_, symObjAddr: 0xFFC0, symBinAddr: 0x100013430, symSize: 0x34 }
  - { offsetInCU: 0x3B0C9, offset: 0x3B0C9, size: 0x8, addend: 0x0, symName: __ZN5Eigen8internal31generic_dense_assignment_kernelINS0_9evaluatorINS_6MatrixIdLin1ELin1ELi0ELin1ELin1EEEEENS2_INS_13CwiseBinaryOpINS0_13scalar_sum_opIddEEKNS_12ArrayWrapperIS4_EESB_EEEENS0_9assign_opIddEELi0EEC1ERS5_RKSD_RKSF_RS4_, symObjAddr: 0x100EC, symBinAddr: 0x10001355C, symSize: 0x4C }
  - { offsetInCU: 0x3B12F, offset: 0x3B12F, size: 0x8, addend: 0x0, symName: __ZN5Eigen8internal9evaluatorINS_13CwiseBinaryOpINS0_13scalar_sum_opIddEEKNS_12ArrayWrapperINS_6MatrixIdLin1ELin1ELi0ELin1ELin1EEEEES9_EEED1Ev, symObjAddr: 0x101E0, symBinAddr: 0x100013650, symSize: 0x2C }
  - { offsetInCU: 0x3B15C, offset: 0x3B15C, size: 0x8, addend: 0x0, symName: __ZN5Eigen8internal9evaluatorINS_13CwiseBinaryOpINS0_13scalar_sum_opIddEEKNS_12ArrayWrapperINS_6MatrixIdLin1ELin1ELi0ELin1ELin1EEEEES9_EEEC2ERKSA_, symObjAddr: 0x1020C, symBinAddr: 0x10001367C, symSize: 0x34 }
  - { offsetInCU: 0x3B195, offset: 0x3B195, size: 0x8, addend: 0x0, symName: __ZN5Eigen8internal16binary_evaluatorINS_13CwiseBinaryOpINS0_13scalar_sum_opIddEEKNS_12ArrayWrapperINS_6MatrixIdLin1ELin1ELi0ELin1ELin1EEEEES9_EENS0_10IndexBasedESB_ddEC2ERKSA_, symObjAddr: 0x10240, symBinAddr: 0x1000136B0, symSize: 0x6C }
  - { offsetInCU: 0x3B1CE, offset: 0x3B1CE, size: 0x8, addend: 0x0, symName: __ZN5Eigen8internal14evaluator_baseINS_13CwiseBinaryOpINS0_13scalar_sum_opIddEEKNS_12ArrayWrapperINS_6MatrixIdLin1ELin1ELi0ELin1ELin1EEEEES9_EEEC2Ev, symObjAddr: 0x102AC, symBinAddr: 0x10001371C, symSize: 0x14 }
  - { offsetInCU: 0x3B1F8, offset: 0x3B1F8, size: 0x8, addend: 0x0, symName: __ZN5Eigen8internal16binary_evaluatorINS_13CwiseBinaryOpINS0_13scalar_sum_opIddEEKNS_12ArrayWrapperINS_6MatrixIdLin1ELin1ELi0ELin1ELin1EEEEES9_EENS0_10IndexBasedESB_ddE4DataC1ERKSA_, symObjAddr: 0x102C0, symBinAddr: 0x100013730, symSize: 0x34 }
  - { offsetInCU: 0x3B231, offset: 0x3B231, size: 0x8, addend: 0x0, symName: __ZN5Eigen8internal14evaluator_baseINS_13CwiseBinaryOpINS0_13scalar_sum_opIddEEKNS_12ArrayWrapperINS_6MatrixIdLin1ELin1ELi0ELin1ELin1EEEEES9_EEED2Ev, symObjAddr: 0x102F4, symBinAddr: 0x100013764, symSize: 0x14 }
  - { offsetInCU: 0x3B25B, offset: 0x3B25B, size: 0x8, addend: 0x0, symName: __ZN5Eigen8internal16binary_evaluatorINS_13CwiseBinaryOpINS0_13scalar_sum_opIddEEKNS_12ArrayWrapperINS_6MatrixIdLin1ELin1ELi0ELin1ELin1EEEEES9_EENS0_10IndexBasedESB_ddE4DataC2ERKSA_, symObjAddr: 0x10308, symBinAddr: 0x100013778, symSize: 0xB0 }
  - { offsetInCU: 0x3B294, offset: 0x3B294, size: 0x8, addend: 0x0, symName: __ZNK5Eigen13CwiseBinaryOpINS_8internal13scalar_sum_opIddEEKNS_12ArrayWrapperINS_6MatrixIdLin1ELin1ELi0ELin1ELin1EEEEES8_E7functorEv, symObjAddr: 0x103B8, symBinAddr: 0x100013828, symSize: 0x18 }
  - { offsetInCU: 0x3B2BA, offset: 0x3B2BA, size: 0x8, addend: 0x0, symName: __ZNK5Eigen13CwiseBinaryOpINS_8internal13scalar_sum_opIddEEKNS_12ArrayWrapperINS_6MatrixIdLin1ELin1ELi0ELin1ELin1EEEEES8_E3lhsEv, symObjAddr: 0x103D0, symBinAddr: 0x100013840, symSize: 0x14 }
  - { offsetInCU: 0x3B2E0, offset: 0x3B2E0, size: 0x8, addend: 0x0, symName: __ZNK5Eigen13CwiseBinaryOpINS_8internal13scalar_sum_opIddEEKNS_12ArrayWrapperINS_6MatrixIdLin1ELin1ELi0ELin1ELin1EEEEES8_E3rhsEv, symObjAddr: 0x103E4, symBinAddr: 0x100013854, symSize: 0x18 }
  - { offsetInCU: 0x3B306, offset: 0x3B306, size: 0x8, addend: 0x0, symName: __ZN5Eigen8internal31generic_dense_assignment_kernelINS0_9evaluatorINS_6MatrixIdLin1ELin1ELi0ELin1ELin1EEEEENS2_INS_13CwiseBinaryOpINS0_13scalar_sum_opIddEEKNS_12ArrayWrapperIS4_EESB_EEEENS0_9assign_opIddEELi0EEC2ERS5_RKSD_RKSF_RS4_, symObjAddr: 0x103FC, symBinAddr: 0x10001386C, symSize: 0x44 }
  - { offsetInCU: 0x3B36C, offset: 0x3B36C, size: 0x8, addend: 0x0, symName: __ZNK5Eigen8internal31generic_dense_assignment_kernelINS0_9evaluatorINS_6MatrixIdLin1ELin1ELi0ELin1ELin1EEEEENS2_INS_13CwiseBinaryOpINS0_13scalar_sum_opIddEEKNS_12ArrayWrapperIS4_EESB_EEEENS0_9assign_opIddEELi0EE4sizeEv, symObjAddr: 0x10440, symBinAddr: 0x1000138B0, symSize: 0x28 }
  - { offsetInCU: 0x3B392, offset: 0x3B392, size: 0x8, addend: 0x0, symName: __ZN5Eigen8internal31unaligned_dense_assignment_loopILb1EE3runINS0_31generic_dense_assignment_kernelINS0_9evaluatorINS_6MatrixIdLin1ELin1ELi0ELin1ELin1EEEEENS5_INS_13CwiseBinaryOpINS0_13scalar_sum_opIddEEKNS_12ArrayWrapperIS7_EESE_EEEENS0_9assign_opIddEELi0EEEEEvRT_ll, symObjAddr: 0x10468, symBinAddr: 0x1000138D8, symSize: 0x18 }
  - { offsetInCU: 0x3B3D1, offset: 0x3B3D1, size: 0x8, addend: 0x0, symName: __ZN5Eigen8internal31generic_dense_assignment_kernelINS0_9evaluatorINS_6MatrixIdLin1ELin1ELi0ELin1ELin1EEEEENS2_INS_13CwiseBinaryOpINS0_13scalar_sum_opIddEEKNS_12ArrayWrapperIS4_EESB_EEEENS0_9assign_opIddEELi0EE12assignPacketILi16ELi16E19__simd128_float64_tEEvl, symObjAddr: 0x10480, symBinAddr: 0x1000138F0, symSize: 0x64 }
  - { offsetInCU: 0x3B423, offset: 0x3B423, size: 0x8, addend: 0x0, symName: __ZN5Eigen8internal31unaligned_dense_assignment_loopILb0EE3runINS0_31generic_dense_assignment_kernelINS0_9evaluatorINS_6MatrixIdLin1ELin1ELi0ELin1ELin1EEEEENS5_INS_13CwiseBinaryOpINS0_13scalar_sum_opIddEEKNS_12ArrayWrapperIS7_EESE_EEEENS0_9assign_opIddEELi0EEEEEvRT_ll, symObjAddr: 0x104E4, symBinAddr: 0x100013954, symSize: 0x68 }
  - { offsetInCU: 0x3B48B, offset: 0x3B48B, size: 0x8, addend: 0x0, symName: __ZNK5Eigen8internal16binary_evaluatorINS_13CwiseBinaryOpINS0_13scalar_sum_opIddEEKNS_12ArrayWrapperINS_6MatrixIdLin1ELin1ELi0ELin1ELin1EEEEES9_EENS0_10IndexBasedESB_ddE6packetILi16E19__simd128_float64_tEET0_l, symObjAddr: 0x1054C, symBinAddr: 0x1000139BC, symSize: 0x70 }
  - { offsetInCU: 0x3B4D3, offset: 0x3B4D3, size: 0x8, addend: 0x0, symName: __ZNK5Eigen8internal16binary_evaluatorINS_13CwiseBinaryOpINS0_13scalar_sum_opIddEEKNS_12ArrayWrapperINS_6MatrixIdLin1ELin1ELi0ELin1ELin1EEEEES9_EENS0_10IndexBasedESB_ddE4Data4funcEv, symObjAddr: 0x105BC, symBinAddr: 0x100013A2C, symSize: 0x14 }
  - { offsetInCU: 0x3B4F9, offset: 0x3B4F9, size: 0x8, addend: 0x0, symName: __ZN5Eigen8internal31generic_dense_assignment_kernelINS0_9evaluatorINS_6MatrixIdLin1ELin1ELi0ELin1ELin1EEEEENS2_INS_13CwiseBinaryOpINS0_13scalar_sum_opIddEEKNS_12ArrayWrapperIS4_EESB_EEEENS0_9assign_opIddEELi0EE11assignCoeffEl, symObjAddr: 0x105D0, symBinAddr: 0x100013A40, symSize: 0x64 }
  - { offsetInCU: 0x3B52E, offset: 0x3B52E, size: 0x8, addend: 0x0, symName: __ZNK5Eigen8internal16binary_evaluatorINS_13CwiseBinaryOpINS0_13scalar_sum_opIddEEKNS_12ArrayWrapperINS_6MatrixIdLin1ELin1ELi0ELin1ELin1EEEEES9_EENS0_10IndexBasedESB_ddE5coeffEl, symObjAddr: 0x10634, symBinAddr: 0x100013AA4, symSize: 0x64 }
  - { offsetInCU: 0x3B563, offset: 0x3B563, size: 0x8, addend: 0x0, symName: __ZN5Eigen8internal9evaluatorINS_13CwiseBinaryOpINS0_13scalar_sum_opIddEEKNS_12ArrayWrapperINS_6MatrixIdLin1ELin1ELi0ELin1ELin1EEEEES9_EEED2Ev, symObjAddr: 0x10698, symBinAddr: 0x100013B08, symSize: 0x2C }
  - { offsetInCU: 0x3B590, offset: 0x3B590, size: 0x8, addend: 0x0, symName: __ZN5Eigen8internal16binary_evaluatorINS_13CwiseBinaryOpINS0_13scalar_sum_opIddEEKNS_12ArrayWrapperINS_6MatrixIdLin1ELin1ELi0ELin1ELin1EEEEES9_EENS0_10IndexBasedESB_ddED2Ev, symObjAddr: 0x106C4, symBinAddr: 0x100013B34, symSize: 0x5C }
  - { offsetInCU: 0x3B5BC, offset: 0x3B5BC, size: 0x8, addend: 0x0, symName: __ZN5Eigen8internal16binary_evaluatorINS_13CwiseBinaryOpINS0_13scalar_sum_opIddEEKNS_12ArrayWrapperINS_6MatrixIdLin1ELin1ELi0ELin1ELin1EEEEES9_EENS0_10IndexBasedESB_ddE4DataD1Ev, symObjAddr: 0x10720, symBinAddr: 0x100013B90, symSize: 0x2C }
  - { offsetInCU: 0x3B5E9, offset: 0x3B5E9, size: 0x8, addend: 0x0, symName: __ZN5Eigen8internal16binary_evaluatorINS_13CwiseBinaryOpINS0_13scalar_sum_opIddEEKNS_12ArrayWrapperINS_6MatrixIdLin1ELin1ELi0ELin1ELin1EEEEES9_EENS0_10IndexBasedESB_ddE4DataD2Ev, symObjAddr: 0x1074C, symBinAddr: 0x100013BBC, symSize: 0x6C }
  - { offsetInCU: 0x3B616, offset: 0x3B616, size: 0x8, addend: 0x0, symName: __ZNK5Eigen9DenseBaseINS_6MatrixIdLin1ELin1ELi0ELin1ELin1EEEE5reduxINS_8internal13scalar_sum_opIddEEEEdRKT_, symObjAddr: 0x107B8, symBinAddr: 0x100013C28, symSize: 0x114 }
  - { offsetInCU: 0x3B68B, offset: 0x3B68B, size: 0x8, addend: 0x0, symName: __ZN5Eigen8internal15redux_evaluatorINS_6MatrixIdLin1ELin1ELi0ELin1ELin1EEEEC1ERKS3_, symObjAddr: 0x108CC, symBinAddr: 0x100013D3C, symSize: 0x34 }
  - { offsetInCU: 0x3B6C9, offset: 0x3B6C9, size: 0x8, addend: 0x0, symName: __ZN5Eigen8internal10redux_implINS0_13scalar_sum_opIddEENS0_15redux_evaluatorINS_6MatrixIdLin1ELin1ELi0ELin1ELin1EEEEELi3ELi0EE3runIS6_EEdRKS7_RKS3_RKT_, symObjAddr: 0x10900, symBinAddr: 0x100013D70, symSize: 0x340 }
  - { offsetInCU: 0x3B845, offset: 0x3B845, size: 0x8, addend: 0x0, symName: __ZN5Eigen8internal15redux_evaluatorINS_6MatrixIdLin1ELin1ELi0ELin1ELin1EEEED1Ev, symObjAddr: 0x10C40, symBinAddr: 0x1000140B0, symSize: 0x2C }
  - { offsetInCU: 0x3B872, offset: 0x3B872, size: 0x8, addend: 0x0, symName: __ZN5Eigen8internal15redux_evaluatorINS_6MatrixIdLin1ELin1ELi0ELin1ELin1EEEEC2ERKS3_, symObjAddr: 0x10C6C, symBinAddr: 0x1000140DC, symSize: 0x34 }
  - { offsetInCU: 0x3B8AB, offset: 0x3B8AB, size: 0x8, addend: 0x0, symName: __ZNK5Eigen8internal13scalar_sum_opIddE6preduxI19__simd128_float64_tEEdRKT_, symObjAddr: 0x10CC4, symBinAddr: 0x100014134, symSize: 0x28 }
  - { offsetInCU: 0x3B8E8, offset: 0x3B8E8, size: 0x8, addend: 0x0, symName: __ZN5Eigen8internal18first_aligned_implILi16ENS_6MatrixIdLin1ELin1ELi0ELin1ELin1EEELb1EE3runERKS3_, symObjAddr: 0x10D14, symBinAddr: 0x100014184, symSize: 0x14 }
  - { offsetInCU: 0x3B908, offset: 0x3B908, size: 0x8, addend: 0x0, symName: __ZN5Eigen8internal15redux_evaluatorINS_6MatrixIdLin1ELin1ELi0ELin1ELin1EEEED2Ev, symObjAddr: 0x10D70, symBinAddr: 0x1000141E0, symSize: 0x2C }
  - { offsetInCU: 0x3B935, offset: 0x3B935, size: 0x8, addend: 0x0, symName: __ZNSt3__111char_traitsIcE6lengthEPKc, symObjAddr: 0x10F90, symBinAddr: 0x100014400, symSize: 0x48 }
  - { offsetInCU: 0x3B976, offset: 0x3B976, size: 0x8, addend: 0x0, symName: __ZNKSt3__113basic_ostreamIcNS_11char_traitsIcEEE6sentrycvbB7v160006Ev, symObjAddr: 0x10FD8, symBinAddr: 0x100014448, symSize: 0x1C }
  - { offsetInCU: 0x3B99C, offset: 0x3B99C, size: 0x8, addend: 0x0, symName: __ZNSt3__119ostreambuf_iteratorIcNS_11char_traitsIcEEEC1B7v160006ERNS_13basic_ostreamIcS2_EE, symObjAddr: 0x1123C, symBinAddr: 0x1000146AC, symSize: 0x34 }
  - { offsetInCU: 0x3B9D4, offset: 0x3B9D4, size: 0x8, addend: 0x0, symName: __ZNKSt3__18ios_base5flagsB7v160006Ev, symObjAddr: 0x11270, symBinAddr: 0x1000146E0, symSize: 0x18 }
  - { offsetInCU: 0x3B9FC, offset: 0x3B9FC, size: 0x8, addend: 0x0, symName: __ZNKSt3__19basic_iosIcNS_11char_traitsIcEEE4fillB7v160006Ev, symObjAddr: 0x11288, symBinAddr: 0x1000146F8, symSize: 0x64 }
  - { offsetInCU: 0x3BA24, offset: 0x3BA24, size: 0x8, addend: 0x0, symName: __ZNKSt3__119ostreambuf_iteratorIcNS_11char_traitsIcEEE6failedB7v160006Ev, symObjAddr: 0x112EC, symBinAddr: 0x10001475C, symSize: 0x24 }
  - { offsetInCU: 0x3BA4A, offset: 0x3BA4A, size: 0x8, addend: 0x0, symName: __ZNSt3__19basic_iosIcNS_11char_traitsIcEEE8setstateB7v160006Ej, symObjAddr: 0x11310, symBinAddr: 0x100014780, symSize: 0x2C }
  - { offsetInCU: 0x3BA7F, offset: 0x3BA7F, size: 0x8, addend: 0x0, symName: __ZNKSt3__18ios_base5widthB7v160006Ev, symObjAddr: 0x1133C, symBinAddr: 0x1000147AC, symSize: 0x18 }
  - { offsetInCU: 0x3BAA7, offset: 0x3BAA7, size: 0x8, addend: 0x0, symName: __ZNSt3__115basic_streambufIcNS_11char_traitsIcEEE5sputnB7v160006EPKcl, symObjAddr: 0x11354, symBinAddr: 0x1000147C4, symSize: 0x3C }
  - { offsetInCU: 0x3BAE9, offset: 0x3BAE9, size: 0x8, addend: 0x0, symName: __ZNSt3__112basic_stringIcNS_11char_traitsIcEENS_9allocatorIcEEEC1B7v160006Emc, symObjAddr: 0x11390, symBinAddr: 0x100014800, symSize: 0x3C }
  - { offsetInCU: 0x3BB31, offset: 0x3BB31, size: 0x8, addend: 0x0, symName: __ZNKSt3__112basic_stringIcNS_11char_traitsIcEENS_9allocatorIcEEE4dataB7v160006Ev, symObjAddr: 0x113CC, symBinAddr: 0x10001483C, symSize: 0x28 }
  - { offsetInCU: 0x3BB57, offset: 0x3BB57, size: 0x8, addend: 0x0, symName: __ZNSt3__18ios_base5widthB7v160006El, symObjAddr: 0x113F4, symBinAddr: 0x100014864, symSize: 0x2C }
  - { offsetInCU: 0x3BB9D, offset: 0x3BB9D, size: 0x8, addend: 0x0, symName: __ZNSt3__112basic_stringIcNS_11char_traitsIcEENS_9allocatorIcEEEC2B7v160006Emc, symObjAddr: 0x11420, symBinAddr: 0x100014890, symSize: 0x54 }
  - { offsetInCU: 0x3BBEB, offset: 0x3BBEB, size: 0x8, addend: 0x0, symName: __ZNSt3__117__compressed_pairINS_12basic_stringIcNS_11char_traitsIcEENS_9allocatorIcEEE5__repES5_EC1B7v160006INS_18__default_init_tagESA_EEOT_OT0_, symObjAddr: 0x11474, symBinAddr: 0x1000148E4, symSize: 0x3C }
  - { offsetInCU: 0x3BC43, offset: 0x3BC43, size: 0x8, addend: 0x0, symName: __ZNSt3__117__compressed_pairINS_12basic_stringIcNS_11char_traitsIcEENS_9allocatorIcEEE5__repES5_EC2B7v160006INS_18__default_init_tagESA_EEOT_OT0_, symObjAddr: 0x114C0, symBinAddr: 0x100014930, symSize: 0x3C }
  - { offsetInCU: 0x3BC9B, offset: 0x3BC9B, size: 0x8, addend: 0x0, symName: __ZNSt3__122__compressed_pair_elemINS_12basic_stringIcNS_11char_traitsIcEENS_9allocatorIcEEE5__repELi0ELb0EEC2B7v160006ENS_18__default_init_tagE, symObjAddr: 0x114FC, symBinAddr: 0x10001496C, symSize: 0x14 }
  - { offsetInCU: 0x3BCD0, offset: 0x3BCD0, size: 0x8, addend: 0x0, symName: __ZNSt3__122__compressed_pair_elemINS_9allocatorIcEELi1ELb1EEC2B7v160006ENS_18__default_init_tagE, symObjAddr: 0x11510, symBinAddr: 0x100014980, symSize: 0x2C }
  - { offsetInCU: 0x3BD05, offset: 0x3BD05, size: 0x8, addend: 0x0, symName: __ZNSt3__19allocatorIcEC2B7v160006Ev, symObjAddr: 0x1153C, symBinAddr: 0x1000149AC, symSize: 0x2C }
  - { offsetInCU: 0x3BD2F, offset: 0x3BD2F, size: 0x8, addend: 0x0, symName: __ZNSt3__116__non_trivial_ifILb1ENS_9allocatorIcEEEC2B7v160006Ev, symObjAddr: 0x11568, symBinAddr: 0x1000149D8, symSize: 0x14 }
  - { offsetInCU: 0x3BD59, offset: 0x3BD59, size: 0x8, addend: 0x0, symName: __ZNKSt3__112basic_stringIcNS_11char_traitsIcEENS_9allocatorIcEEE13__get_pointerB7v160006Ev, symObjAddr: 0x11590, symBinAddr: 0x100014A00, symSize: 0x54 }
  - { offsetInCU: 0x3BD7F, offset: 0x3BD7F, size: 0x8, addend: 0x0, symName: __ZNKSt3__112basic_stringIcNS_11char_traitsIcEENS_9allocatorIcEEE9__is_longB7v160006Ev, symObjAddr: 0x115E4, symBinAddr: 0x100014A54, symSize: 0x74 }
  - { offsetInCU: 0x3BDA5, offset: 0x3BDA5, size: 0x8, addend: 0x0, symName: __ZNKSt3__112basic_stringIcNS_11char_traitsIcEENS_9allocatorIcEEE18__get_long_pointerB7v160006Ev, symObjAddr: 0x11658, symBinAddr: 0x100014AC8, symSize: 0x28 }
  - { offsetInCU: 0x3BDCB, offset: 0x3BDCB, size: 0x8, addend: 0x0, symName: __ZNKSt3__112basic_stringIcNS_11char_traitsIcEENS_9allocatorIcEEE19__get_short_pointerB7v160006Ev, symObjAddr: 0x11680, symBinAddr: 0x100014AF0, symSize: 0x28 }
  - { offsetInCU: 0x3BDF1, offset: 0x3BDF1, size: 0x8, addend: 0x0, symName: __ZNKSt3__117__compressed_pairINS_12basic_stringIcNS_11char_traitsIcEENS_9allocatorIcEEE5__repES5_E5firstB7v160006Ev, symObjAddr: 0x116B4, symBinAddr: 0x100014B24, symSize: 0x24 }
  - { offsetInCU: 0x3BE17, offset: 0x3BE17, size: 0x8, addend: 0x0, symName: __ZNKSt3__122__compressed_pair_elemINS_12basic_stringIcNS_11char_traitsIcEENS_9allocatorIcEEE5__repELi0ELb0EE5__getB7v160006Ev, symObjAddr: 0x116D8, symBinAddr: 0x100014B48, symSize: 0x14 }
  - { offsetInCU: 0x3BE3D, offset: 0x3BE3D, size: 0x8, addend: 0x0, symName: __ZNSt3__114pointer_traitsIPKcE10pointer_toB7v160006ERS1_, symObjAddr: 0x116EC, symBinAddr: 0x100014B5C, symSize: 0x14 }
  - { offsetInCU: 0x3BE60, offset: 0x3BE60, size: 0x8, addend: 0x0, symName: __ZNSt3__119ostreambuf_iteratorIcNS_11char_traitsIcEEEC2B7v160006ERNS_13basic_ostreamIcS2_EE, symObjAddr: 0x11700, symBinAddr: 0x100014B70, symSize: 0x68 }
  - { offsetInCU: 0x3BE98, offset: 0x3BE98, size: 0x8, addend: 0x0, symName: __ZNKSt3__19basic_iosIcNS_11char_traitsIcEEE5rdbufB7v160006Ev, symObjAddr: 0x11768, symBinAddr: 0x100014BD8, symSize: 0x24 }
  - { offsetInCU: 0x3BEC0, offset: 0x3BEC0, size: 0x8, addend: 0x0, symName: __ZNKSt3__18ios_base5rdbufB7v160006Ev, symObjAddr: 0x1178C, symBinAddr: 0x100014BFC, symSize: 0x18 }
  - { offsetInCU: 0x3BEE6, offset: 0x3BEE6, size: 0x8, addend: 0x0, symName: __ZNSt3__111char_traitsIcE11eq_int_typeEii, symObjAddr: 0x117A4, symBinAddr: 0x100014C14, symSize: 0x28 }
  - { offsetInCU: 0x3BF17, offset: 0x3BF17, size: 0x8, addend: 0x0, symName: __ZNSt3__111char_traitsIcE3eofEv, symObjAddr: 0x117CC, symBinAddr: 0x100014C3C, symSize: 0x8 }
  - { offsetInCU: 0x3BF2B, offset: 0x3BF2B, size: 0x8, addend: 0x0, symName: __ZNKSt3__19basic_iosIcNS_11char_traitsIcEEE5widenB7v160006Ec, symObjAddr: 0x117D4, symBinAddr: 0x100014C44, symSize: 0x8C }
  - { offsetInCU: 0x3BF99, offset: 0x3BF99, size: 0x8, addend: 0x0, symName: __ZNKSt3__15ctypeIcE5widenB7v160006Ec, symObjAddr: 0x1188C, symBinAddr: 0x100014CFC, symSize: 0x38 }
  - { offsetInCU: 0x3BFCE, offset: 0x3BFCE, size: 0x8, addend: 0x0, symName: __ZNSt3__18ios_base8setstateB7v160006Ej, symObjAddr: 0x118C4, symBinAddr: 0x100014D34, symSize: 0x34 }
...
